{
  "main_library": {
    "compatibility_versions": [
      {
        "version": "0"
      }
    ],
    "current_versions": [
      {
        "version": "0"
      }
    ],
    "exported_symbols": [
      {
        "data": {
          "global": [
            "__ZN5cppgc21ProcessHeapStatistics28total_allocated_object_size_E",
            "__ZN2v88internal7Version7soname_E",
            "__ZN5cppgc8internal17GlobalGCInfoTable13global_table_E",
            "__ZN2v88internal7Version15version_string_E",
            "__ZN12v8_inspector8protocol8Debugger3API6Paused10ReasonEnum16PromiseRejectionE",
            "__ZN2v88internal7Version6minor_E",
            "__ZN12v8_inspector8protocol8Debugger3API6Paused10ReasonEnum3OOME",
            "__ZN12v8_inspector8protocol8Debugger3API6Paused10ReasonEnum9ExceptionE",
            "__ZN2v88Function19kLineOffsetNotFoundE",
            "__ZN5cppgc8internal12WriteBarrier22write_barrier_enabled_E",
            "__ZN12v8_inspector8protocol8Debugger3API6Paused10ReasonEnum15InstrumentationE",
            "__ZN2v88internal7Version10candidate_E",
            "__ZTVN2v817ValueDeserializer8DelegateE",
            "__ZTVN2v816CodeEventHandlerE",
            "__ZN2v88internal7Version6major_E",
            "__ZN12v8_inspector8protocol8Debugger3API6Paused10ReasonEnum3DOME",
            "__ZN5cppgc21ProcessHeapStatistics22total_allocated_space_E",
            "__ZTVN5cppgc8PlatformE",
            "__ZN2v814CpuProfileNode19kNoColumnNumberInfoE",
            "__ZN2v814CpuProfileNode17kNoLineNumberInfoE",
            "__ZN2v812HeapProfiler16kUnknownObjectIdE",
            "__ZN5cppgc8internal14CageBaseGlobal7g_base_E",
            "__ZN2v88internal7Version6patch_E",
            "__ZN12v8_inspector8protocol8Debugger3API6Paused10ReasonEnum12DebugCommandE",
            "__ZN12v8_inspector8protocol8Debugger3API6Paused10ReasonEnum13EventListenerE",
            "__ZN12v8_inspector8protocol8Debugger3API6Paused10ReasonEnum6AssertE",
            "__ZN12v8_inspector8protocol8Debugger3API6Paused10ReasonEnum12CSPViolationE",
            "__ZTVN2v815ValueSerializer8DelegateE",
            "__ZN2v88internal7Version6build_E",
            "__ZN5cppgc8internal13CagedHeapBase12g_heap_base_E",
            "__ZN12v8_inspector8protocol8Debugger3API6Paused10ReasonEnum3XHRE",
            "__ZN12v8_inspector8protocol8Debugger3API6Paused10ReasonEnum4StepE",
            "_bare_js",
            "_bare_js_len",
            "__ZTVN2v813EmbedderGraphE",
            "__ZN5cppgc8internal13CagedHeapBase17g_age_table_size_E",
            "__ZN2v88internal15ThreadIsolation13trusted_data_E",
            "__ZN12v8_inspector8protocol8Debugger3API6Paused10ReasonEnum9AmbiguousE",
            "__ZN12v8_inspector8protocol8Debugger3API6Paused10ReasonEnum5OtherE",
            "__ZN2v88internal7Version9embedder_E"
          ],
          "weak": [
            "__ZZNSt4__Cr10__function8__policy15__choose_policyINS0_20__default_alloc_funcIZN8js_env_s20call_into_javascriptIN2v810MaybeLocalINS6_6ObjectEEEEET_RKNS_8functionIFSA_vEEEbEUlvE_FS9_vEEEEEPKS1_NS_17integral_constantIbLb0EEEE8__policy",
            "__ZZNSt4__Cr10__function8__policy14__create_emptyEvE8__policy",
            "__ZZNSt4__Cr10__function8__policy15__choose_policyINS0_20__default_alloc_funcIZN16js_task_runner_s9push_taskEO21js_idle_task_handle_sEUlvE_FvvEEEEEPKS1_NS_17integral_constantIbLb1EEEE8__policy",
            "__ZZNSt4__Cr10__function8__policy15__choose_policyINS0_20__default_alloc_funcIZN8js_env_s20call_into_javascriptIN2v85MaybeIbEEEET_RKNS_8functionIFS9_vEEEbEUlvE_FS8_vEEEEEPKS1_NS_17integral_constantIbLb0EEEE8__policy",
            "__ZZN2v88Platform35GetHighAllocationThroughputObserverEvE16default_observer",
            "__ZZNSt4__Cr10__function8__policy15__choose_policyINS0_20__default_alloc_funcIZN16js_task_runner_s9push_taskEO24js_delayed_task_handle_sEUlvE_FvvEEEEEPKS1_NS_17integral_constantIbLb1EEEE8__policy",
            "__ZN5cppgc8internal11GCInfoTable9kMinIndexE",
            "__ZZNSt4__Cr10__function8__policy15__choose_policyINS0_20__default_alloc_funcIZN8js_env_s20call_into_javascriptIN2v810MaybeLocalINS6_5ValueEEEEET_RKNS_8functionIFSA_vEEEbEUlvE_FS9_vEEEEEPKS1_NS_17integral_constantIbLb0EEEE8__policy",
            "__ZN5cppgc8internal11GCInfoTable19kInitialWantedLimitE",
            "__ZN5cppgc8internal11GCInfoTable9kMaxIndexE",
            "__ZZNSt4__Cr10__function8__policy15__choose_policyINS0_20__default_alloc_funcIZN8js_env_s20call_into_javascriptIbEET_RKNS_8functionIFS6_vEEEbEUlvE_FbvEEEEEPKS1_NS_17integral_constantIbLb0EEEE8__policy",
            "__ZZNSt4__Cr10__function8__policy15__choose_policyINS0_20__default_alloc_funcIZN16js_task_runner_s9push_taskEO16js_task_handle_sEUlvE_FvvEEEEEPKS1_NS_17integral_constantIbLb1EEEE8__policy",
            "__ZZNSt4__Cr10__function8__policy15__choose_policyINS0_20__default_alloc_funcIZN8js_env_s20call_into_javascriptIN2v810MaybeLocalINS6_5ArrayEEEEET_RKNS_8functionIFSA_vEEEbEUlvE_FS9_vEEEEEPKS1_NS_17integral_constantIbLb0EEEE8__policy"
          ]
        },
        "text": {
          "global": [
            "_js_is_array",
            "_js_typeof",
            "__ZN2v814ObjectTemplate10SetHandlerERKNS_35IndexedPropertyHandlerConfigurationE",
            "_js_add_finalizer",
            "_uv_fs_fdatasync",
            "__ZN5cppgc6subtle30DisallowGarbageCollectionScopeD2Ev",
            "_hex_decode_utf16le",
            "_js_coerce_to_boolean",
            "__ZN2v87Isolate24RemoveGCEpilogueCallbackEPFvPS0_NS_6GCTypeENS_15GCCallbackFlagsEE",
            "__ZN12v8_inspector14V8StackTraceIdC1Ev",
            "_url_get_href",
            "__ZNK2v85Value15IsBooleanObjectEv",
            "__ZNK2v84Data12IsFixedArrayEv",
            "__ZNK2v85Value7IsProxyEv",
            "_uv_handle_get_loop",
            "__ZN2v86Object3GetENS_5LocalINS_7ContextEEENS1_INS_5ValueEEENS_10MaybeLocalIS0_EE",
            "__ZN2v818PropertyDescriptorC1ENS_5LocalINS_5ValueEEE",
            "__ZN2v86String9CheckCastEPNS_4DataE",
            "__ZN2v86Module17InstantiateModuleENS_5LocalINS_7ContextEEEPFNS_10MaybeLocalIS0_EES3_NS1_INS_6StringEEENS1_INS_10FixedArrayEEENS1_IS0_EEEPFNS4_INS_6ObjectEEES3_S7_S9_SA_E",
            "__ZN2v87Isolate14GetStackSampleERKNS_13RegisterStateEPPvmPNS_10SampleInfoE",
            "__ZN2v815ValueSerializer11WriteDoubleEd",
            "__ZNK2v813HeapGraphNode7GetNameEv",
            "__ZN2v88internal8compiler23CompilationDependencies28DependOnPromiseHookProtectorEv",
            "__ZNK2v818PropertyDescriptor14has_enumerableEv",
            "__ZN2v812SymbolObject3NewEPNS_7IsolateENS_5LocalINS_6SymbolEEE",
            "_uv_barrier_init",
            "_napi_get_dataview_info",
            "_uv_get_free_memory",
            "__ZN2v811HandleScopedaEPvm",
            "__ZN2v814ObjectTemplate3NewEPNS_7IsolateENS_5LocalINS_16FunctionTemplateEEE",
            "_js_get_dataview_info",
            "_napi_get_value_int32",
            "_napi_create_date",
            "_napi_is_arraybuffer",
            "__ZN2v812HeapProfiler11GetObjectIdEPv",
            "_js_create_arraybuffer_with_backing_store",
            "_uv_print_all_handles",
            "_uv_pipe_open",
            "__ZN2v88TryCatch7ReThrowEv",
            "__ZN5cppgc8internal11GCInfoTableC1ERN2v813PageAllocatorERNS0_23FatalOutOfMemoryHandlerE",
            "_uv_loop_size",
            "__ZN2v86String18NewExternalOneByteEPNS_7IsolateEPNS0_29ExternalOneByteStringResourceE",
            "__ZN2v88internal8compiler23CompilationDependencies28DependOnNoProfilingProtectorEv",
            "_bare_addon_get_dynamic",
            "__ZNK2v88Function21GetScriptColumnNumberEv",
            "__ZN2v82V828EnableWebAssemblyTrapHandlerEb",
            "__ZN2v86Symbol3NewEPNS_7IsolateENS_5LocalINS_6StringEEE",
            "__ZN2v823ExternalMemoryAccounter8IncreaseEPNS_7IsolateEm",
            "__ZNK2v85Value19IsSharedArrayBufferEv",
            "__ZN2v88internal15ThreadIsolation16JitPageReference19StartOfAllocationAtEm",
            "__ZN2v815SnapshotCreatorD2Ev",
            "_napi_get_array_length",
            "__ZN2v815SnapshotCreatorC2EPNS_7IsolateERKNS1_12CreateParamsE",
            "__ZN2v810StackTrace28CurrentScriptNameOrSourceURLEPNS_7IsolateE",
            "__ZN2v815SnapshotCreator7AddDataEm",
            "__ZN2v88internal15ThreadIsolation16JitPageReference6ShrinkEPNS1_7JitPageE",
            "__ZN2v816CodeEventHandler6EnableEv",
            "__ZNK2v88TryCatch9IsVerboseEv",
            "__ZN2v815ValueSerializer8Delegate22GetSharedArrayBufferIdEPNS_7IsolateENS_5LocalINS_17SharedArrayBufferEEE",
            "_uv_cwd",
            "__ZNK2v85Value7ToInt32ENS_5LocalINS_7ContextEEE",
            "__ZN2v88TryCatchdlEPvm",
            "__ZN2v87Context19SlowGetEmbedderDataEi",
            "__ZNK2v85Value12FullIsStringEv",
            "__ZN5cppgc8internal20PersistentRegionBase29RefillFreeListAndAllocateNodeEPvPFvRNS0_11RootVisitorEPKvE",
            "__ZN2v88internal8compiler23CompilationDependenciesC2EPNS1_12JSHeapBrokerEPNS0_4ZoneE",
            "__ZNK2v85Value13IsMapIteratorEv",
            "_js_has_own_property",
            "__ZN2v812api_internal9ClearWeakEPm",
            "__ZNK2v85Value12IsInt16ArrayEv",
            "__ZN2v87Isolate24RestoreOriginalHeapLimitEv",
            "__ZN12v8_inspector14V8StackTraceIdC1EmNSt4__Cr4pairIxxEEb",
            "__ZN2v811HandleScopenaEm",
            "_js_release_dataview_view",
            "__ZN2v87Isolate28SetPrepareStackTraceCallbackEPFNS_10MaybeLocalINS_5ValueEEENS_5LocalINS_7ContextEEENS4_IS2_EENS4_INS_5ArrayEEEE",
            "_utf8_string_view_compare",
            "_napi_is_buffer",
            "__ZNK2v85Value25IsWasmMemoryMapDescriptorEv",
            "__ZN5cppgc6subtle30DisallowGarbageCollectionScopeD1Ev",
            "__ZN2v812Float32Array3NewENS_5LocalINS_11ArrayBufferEEEmm",
            "_js_detach_context_from_inspector",
            "__ZN2v87Isolate18SetCounterFunctionEPFPiPKcE",
            "__ZN5cppgc8internal16PersistentRegion16IsCreationThreadEv",
            "_latin1_convert_to_utf8",
            "__ZN2v813WasmStreaming15OnBytesReceivedEPKhm",
            "_js_get_platform_loop",
            "__ZN2v812Float32Array3NewENS_5LocalINS_17SharedArrayBufferEEEmm",
            "__ZN2v87Context3NewEPNS_7IsolateEPNS_22ExtensionConfigurationENS_10MaybeLocalINS_14ObjectTemplateEEENS5_INS_5ValueEEENS_33DeserializeInternalFieldsCallbackEPNS_14MicrotaskQueueENS_30DeserializeContextDataCallbackENS_29DeserializeAPIWrapperCallbackE",
            "__ZN5cppgc8internal20PersistentRegionLockC2Ev",
            "_bare_suspend",
            "__ZN2v86Object21GetPropertyAttributesENS_5LocalINS_7ContextEEENS1_INS_5ValueEEE",
            "_js_get_value_bigint_int64",
            "__ZNK2v86String28VerifyExternalStringResourceEPNS0_22ExternalStringResourceE",
            "_utf8_length_from_utf16le",
            "_uv_timer_again",
            "__ZN2v811ArrayBuffer6DetachENS_5LocalINS_5ValueEEE",
            "__ZN2v86Object46GetRealNamedPropertyAttributesInPrototypeChainENS_5LocalINS_7ContextEEENS1_INS_4NameEEE",
            "__ZN2v815ValueSerializerC2EPNS_7IsolateEPNS0_8DelegateE",
            "__ZN2v823ExternalMemoryAccounter49GetTotalAmountOfExternalAllocatedMemoryForTestingEPKNS_7IsolateE",
            "__ZN5cppgc8internal11GCInfoTable17RegisterNewGCInfoERNSt4__Cr6atomicItEERKNS0_6GCInfoE",
            "_js_get_module_name",
            "__ZN2v87Context37SlowGetAlignedPointerFromEmbedderDataEi",
            "__ZN2v88internal15ThreadIsolation16JitPageReference20AllocationContainingEm",
            "__ZN2v87Promise8Resolver3NewENS_5LocalINS_7ContextEEE",
            "_uv_udp_set_broadcast",
            "_log_vfatal",
            "__ZN2v819HeapSpaceStatisticsC1Ev",
            "__ZNK2v85Value9IsWeakSetEv",
            "__ZNK2v87Message15GetScriptOriginEv",
            "_js_coerce_to_number",
            "_napi_get_threadsafe_function_context",
            "__ZN2v813CFunctionInfoC1ERKNS_9CTypeInfoEjPS2_NS0_19Int64RepresentationE",
            "_js_get_promise_state",
            "__ZN2v84JSON5ParseENS_5LocalINS_7ContextEEENS1_INS_6StringEEE",
            "__ZN2v818HeapCodeStatisticsC1Ev",
            "__ZN2v87Promise8Resolver6RejectENS_5LocalINS_7ContextEEENS2_INS_5ValueEEE",
            "_js_is_float16array",
            "_napi_create_double",
            "_uv_loop_init",
            "__ZNK2v86Script23GetProducedCompileHintsEv",
            "__ZN2v87Isolate29IncreaseHeapLimitForDebuggingEv",
            "_js_create_property_key_utf8",
            "_napi_reference_unref",
            "__ZN2v87Isolate34SetWasmAsyncResolvePromiseCallbackEPFvPS0_NS_5LocalINS_7ContextEEENS2_INS_7Promise8ResolverEEENS2_INS_5ValueEEENS_16WasmAsyncSuccessEE",
            "__ZN2v814ScriptCompiler23StartConsumingCodeCacheEPNS_7IsolateENSt4__Cr10unique_ptrINS0_10CachedDataENS3_14default_deleteIS5_EEEE",
            "__ZN2v811ArrayBuffer15NewBackingStoreEPNS_7IsolateEmNS_30BackingStoreInitializationModeENS_25BackingStoreOnFailureModeE",
            "__ZN2v816FunctionTemplate20SetAcceptAnyReceiverEb",
            "_js_is_module_namespace",
            "__ZN2v86String12MakeExternalEPNS0_29ExternalOneByteStringResourceE",
            "__ZN2v835TryToCopyAndConvertArrayToCppBufferILj524288EdEEbNS_5LocalINS_5ArrayEEEPT0_j",
            "_js_is_dataview",
            "_napi_reference_ref",
            "_uv_fs_mkstemp",
            "__ZN2v811ArrayBuffer3NewEPNS_7IsolateENSt4__Cr10shared_ptrINS_12BackingStoreEEE",
            "__ZN2v88internal15ThreadIsolation15RegisterJitPageEmm",
            "_uv_handle_set_data",
            "__ZNK2v87Message3GetEv",
            "_js_wrap",
            "_utf8_string_clear",
            "__ZN2v815ValueSerializer19TransferArrayBufferEjNS_5LocalINS_11ArrayBufferEEE",
            "_bare_on_suspend",
            "__ZN2v816FunctionTemplate14SetCallHandlerEPFvRKNS_20FunctionCallbackInfoINS_5ValueEEEENS_5LocalIS2_EENS_14SideEffectTypeERKNS_10MemorySpanIKNS_9CFunctionEEE",
            "__ZN2v87Isolate31SuppressMicrotaskExecutionScopeC1EPS0_PNS_14MicrotaskQueueE",
            "__ZN2v811ArrayBuffer6DetachEv",
            "__ZN2v86Object28HasRealNamedCallbackPropertyENS_5LocalINS_7ContextEEENS1_INS_4NameEEE",
            "__ZN2v88internal15ThreadIsolation24UnregisterWasmAllocationEmm",
            "__ZN2v82V818SetFlagsFromStringEPKc",
            "__ZN2v87Isolate6IsDeadEv",
            "_js_get_typedarray_view",
            "__ZN2v88internal10HeapLayout31CheckYoungGenerationConsistencyEPKNS0_11MemoryChunkE",
            "_uv_udp_set_multicast_ttl",
            "__ZN5cppgc8internal17GlobalGCInfoTable10InitializeERN2v813PageAllocatorE",
            "_napi_new_instance",
            "__ZN2v88internal20ValidateCallbackInfoIvEEbRKNS_20PropertyCallbackInfoIT_EE",
            "__ZN2v87Message22PrintCurrentStackTraceEPNS_7IsolateERNSt4__Cr13basic_ostreamIcNS3_11char_traitsIcEEEE",
            "_napi_resolve_deferred",
            "__ZN2v87Isolate30AddMicrotasksCompletedCallbackEPFvPS0_PvES2_",
            "__ZN2v815MicrotasksScopeD1Ev",
            "__ZN2v87Isolate38SetHostImportModuleDynamicallyCallbackEPFNS_10MaybeLocalINS_7PromiseEEENS_5LocalINS_7ContextEEENS4_INS_4DataEEENS4_INS_5ValueEEENS4_INS_6StringEEENS4_INS_10FixedArrayEEEE",
            "__ZN2v816CodeEventHandlerC2EPNS_7IsolateE",
            "_uv_mutex_init",
            "__ZNK2v813UnboundScript5GetIdEv",
            "__ZN2v87Promise8Resolver7ResolveENS_5LocalINS_7ContextEEENS2_INS_5ValueEEE",
            "__ZN2v83Map3SetENS_5LocalINS_7ContextEEENS1_INS_5ValueEEES5_",
            "__ZN5cppgc8internal27CrossThreadPersistentRegion7IterateERNS0_11RootVisitorE",
            "__ZNK2v817ValueDeserializer20GetWireFormatVersionEv",
            "_js_create_array",
            "_js_on_dynamic_import",
            "_log_warn",
            "_napi_coerce_to_object",
            "_utf16_length_from_utf32",
            "__ZN2v86Object22HasRealIndexedPropertyENS_5LocalINS_7ContextEEEj",
            "__ZN2v83Set3HasENS_5LocalINS_7ContextEEENS1_INS_5ValueEEE",
            "__ZN2v86Object16GetPropertyNamesENS_5LocalINS_7ContextEEE",
            "_uv_cond_broadcast",
            "_napi_coerce_to_bool",
            "__ZN2v812api_internal24InternalFieldOutOfBoundsEi",
            "__ZN2v87Isolate10ThrowErrorENS_5LocalINS_6StringEEE",
            "__ZN2v812api_internal12ToLocalEmptyEv",
            "_napi_coerce_to_string",
            "__ZNK2v818PropertyDescriptor9has_valueEv",
            "__ZNK2v88Function19GetScriptLineNumberEv",
            "_napi_unwrap",
            "_utf_is_be",
            "__ZN2v814ScriptCompiler13CompileModuleENS_5LocalINS_7ContextEEEPNS0_14StreamedSourceENS1_INS_6StringEEERKNS_12ScriptOriginE",
            "__ZN2v87Isolate34RequestGarbageCollectionForTestingENS0_21GarbageCollectionTypeEN5cppgc18EmbedderStackStateE",
            "__ZN2v85Proxy9GetTargetEv",
            "__ZN2v87Isolate14SetPromiseHookEPFvNS_15PromiseHookTypeENS_5LocalINS_7PromiseEEENS2_INS_5ValueEEEE",
            "__ZN5cppgc8internal12WriteBarrier43DijkstraMarkingBarrierSlowWithSentinelCheckEPKv",
            "__ZN2v814ScriptCompiler20CompileUnboundScriptEPNS_7IsolateEPNS0_6SourceENS0_14CompileOptionsENS0_13NoCacheReasonE",
            "__ZN2v823ExternalMemoryAccounterC2EOS0_",
            "_js_is_map",
            "_uv_check_init",
            "_js_reference_unref",
            "__ZNK2v85Int325ValueEv",
            "__ZN2v812IsolateGroup18CanCreateNewGroupsEv",
            "__ZNK2v810CpuProfile9GetSampleEi",
            "__ZN2v87Isolate18SetMetricsRecorderERKNSt4__Cr10shared_ptrINS_7metrics8RecorderEEE",
            "__ZNK2v811ArrayBuffer27IsResizableByUserJavaScriptEv",
            "__ZNK2v810StackFrame25GetScriptSourceMappingURLEv",
            "_napi_ref_threadsafe_function",
            "__ZN2v86Object14GetPrototypeV2Ev",
            "__ZNK2v811ArrayBuffer10ByteLengthEv",
            "_js_get_value_string_utf8",
            "__ZN2v89CFunctionC1EPKvPKNS_13CFunctionInfoE",
            "_uv_os_getenv",
            "_js_is_weak_map",
            "__ZN2v87Isolate20SetFatalErrorHandlerEPFvPKcS2_E",
            "__ZN2v820HeapObjectStatisticsC1Ev",
            "_js_connect_inspector",
            "_uv_available_parallelism",
            "_uv_pipe_connect",
            "__ZN2v87Isolate21AtomicsWaitWakeHandle4WakeEv",
            "_uv_fs_sendfile",
            "_napi_convert_from_valuetype",
            "__ZN2v87Isolate16GetDefaultLocaleEv",
            "__ZNK2v812BigIntObject7ValueOfEv",
            "__ZN2v87Isolate32AddMessageListenerWithErrorLevelEPFvNS_5LocalINS_7MessageEEENS1_INS_5ValueEEEEiS5_",
            "__ZN2v813RegisterStateC1ERKS0_",
            "__ZN2v811HandleScopedlEPvm",
            "__ZN2v87Private9CheckCastEPNS_4DataE",
            "__ZNK2v86Module9GetStatusEv",
            "__ZN2v88internal32OptimizingCompileDispatcherQueue5FlushEPNS0_7IsolateE",
            "__ZN2v88internal8compiler23CompilationDependencies33DependOnOwnConstantDoublePropertyENS1_11JSObjectRefENS1_6MapRefENS0_10FieldIndexENS0_7Float64E",
            "_napi_get_uv_event_loop",
            "_js_create_function_with_source",
            "_log_close",
            "__ZN2v86Symbol8GetSplitEPNS_7IsolateE",
            "_bare_thread_join",
            "__ZNK2v87Isolate19GetMicrotasksPolicyEv",
            "_uv_handle_get_type",
            "__ZN2v811CpuProfiler14StartProfilingENS_5LocalINS_6StringEEENS_19CpuProfilingOptionsENSt4__Cr10unique_ptrINS_24DiscardedSamplesDelegateENS5_14default_deleteIS7_EEEE",
            "__ZN2v87Isolate12CreateParamsD1Ev",
            "_js_get_value_external",
            "__ZN2v87Isolate17GetHeapStatisticsEPNS_14HeapStatisticsE",
            "__ZN5cppgc8internal11GCInfoTableD2Ev",
            "__ZNK2v86String10Utf8LengthEPNS_7IsolateE",
            "_uv_ip_name",
            "__ZN2v819UnboundModuleScript12GetSourceURLEv",
            "__ZN2v82V818InitializePlatformEPNS_8PlatformE",
            "_napi_get_property",
            "__ZN2v88internal15ThreadIsolation16JitPageReference5MergeERS2_",
            "_utf8_string_view_empty",
            "__ZN2v88internal15ThreadIsolation16JitPageReferenceC1EPNS1_7JitPageEm",
            "__ZN12v8_inspector12V8DebuggerIdC2ENSt4__Cr4pairIxxEE",
            "__ZN2v811CpuProfiler21SetUsePreciseSamplingEb",
            "__ZN2v812HeapProfiler32RemoveBuildEmbedderGraphCallbackEPFvPNS_7IsolateEPNS_13EmbedderGraphEPvES5_",
            "__ZN2v816TypecheckWitnessC2EPNS_7IsolateE",
            "_js_is_object",
            "_uv_tcp_nodelay",
            "__ZN2v87Isolate7IsInUseEv",
            "__ZN2v816FunctionTemplate17NewRemoteInstanceEv",
            "__ZN2v814ObjectTemplate32SetAccessCheckCallbackAndHandlerEPFbNS_5LocalINS_7ContextEEENS1_INS_6ObjectEEENS1_INS_5ValueEEEERKNS_33NamedPropertyHandlerConfigurationERKNS_35IndexedPropertyHandlerConfigurationES7_",
            "__ZN2v88Template24SetIntrinsicDataPropertyENS_5LocalINS_4NameEEENS_9IntrinsicENS_17PropertyAttributeE",
            "__ZN5cppgc6subtle30DisallowGarbageCollectionScopeC1ERNS_10HeapHandleE",
            "__ZN2v819SharedValueConveyorC2EOS0_",
            "_js_call_function_with_checkpoint",
            "__ZN2v812StringObject9CheckCastEPNS_5ValueE",
            "__ZN2v812HeapProfiler23StopTrackingHeapObjectsEv",
            "__ZN2v87Isolate16EnqueueMicrotaskEPFvPvES1_",
            "__ZNK2v814CpuProfileNode13GetLineNumberEv",
            "_uv_send_buffer_size",
            "__ZN2v815ValueSerializer8Delegate12IsHostObjectEPNS_7IsolateENS_5LocalINS_6ObjectEEE",
            "_napi_is_typedarray",
            "__ZN2v816FunctionTemplate9SetLengthEi",
            "__ZN2v83Set3AddENS_5LocalINS_7ContextEEENS1_INS_5ValueEEE",
            "_uv_pipe",
            "__ZN2v87Context43SetErrorMessageForCodeGenerationFromStringsENS_5LocalINS_6StringEEE",
            "__ZNK2v85Value14IsFloat32ArrayEv",
            "__ZNK2v813HeapGraphNode8GetChildEi",
            "_napi_adjust_external_memory",
            "__ZN2v88internal15ThreadIsolation19LookupJitPageLockedEmm",
            "__ZN2v87Context9CheckCastEPNS_4DataE",
            "_js_create_syntax_error",
            "__ZN2v818PropertyDescriptorC1Ev",
            "__ZN2v87Isolate32DisallowJavascriptExecutionScopeC1EPS0_NS1_9OnFailureE",
            "__ZNK2v810StackFrame16IsUserJavaScriptEv",
            "__ZN2v89ExtensionC1EPKcS2_iPS2_i",
            "_js_throw_range_verrorf",
            "__ZN12v8_inspector11V8Inspector6createEPN2v87IsolateEPNS_17V8InspectorClientE",
            "_js_create_error",
            "__ZN2v87Context36SetErrorMessageForWasmCodeGenerationENS_5LocalINS_6StringEEE",
            "__ZNK2v86String29GetExternalStringResourceSlowEv",
            "__ZNK2v85Value14IsNumberObjectEv",
            "_uv_err_name_r",
            "__ZN2v87Numeric9CheckCastEPNS_4DataE",
            "_uv_stream_set_blocking",
            "__ZN2v87CppHeap19GetAllocationHandleEv",
            "_napi_get_arraybuffer_info",
            "__ZN2v87Integer3NewEPNS_7IsolateEi",
            "__ZNK2v86String11WriteUtf8V2EPNS_7IsolateEPcmi",
            "__ZNK2v85Value7IsInt32Ev",
            "_js_create_external_string_latin1",
            "__ZN2v815ArrayBufferView10ByteOffsetEv",
            "__ZN2v87Isolate33RemoveMicrotasksCompletedCallbackEPFvPS0_PvES2_",
            "_uv_cond_signal",
            "_uv_poll_init",
            "__ZN2v811HandleScope10InitializeEPNS_7IsolateE",
            "__ZNK2v86Module22SourceOffsetToLocationEi",
            "_uv_timer_start",
            "_uv_strerror_r",
            "__ZN2v815MicrotasksScopeC2ENS_5LocalINS_7ContextEEENS0_4TypeE",
            "__ZN2v812HeapProfiler20GetAllocationProfileEv",
            "_js_get_sharedarraybuffer_backing_store",
            "_uv_is_closing",
            "__ZN2v86String5ValueC1EPNS_7IsolateENS_5LocalINS_5ValueEEE",
            "__ZN2v811ArrayBuffer12SetDetachKeyENS_5LocalINS_5ValueEEE",
            "__ZN2v812Float64Array9CheckCastEPNS_5ValueE",
            "_hex_encode_utf8",
            "__ZN2v82V825GetSharedMemoryStatisticsEPNS_22SharedMemoryStatisticsE",
            "__ZN2v819ResourceConstraints29ConfigureDefaultsFromHeapSizeEmm",
            "__ZN2v812NumberObject3NewEPNS_7IsolateEd",
            "__ZN2v813CFunctionInfoC2ERKNS_9CTypeInfoEjPS2_NS0_19Int64RepresentationE",
            "__ZN2v814ScriptCompiler15CreateCodeCacheENS_5LocalINS_13UnboundScriptEEE",
            "_js_throw",
            "_uv_inet_ntop",
            "__ZN2v86Object6DeleteENS_5LocalINS_7ContextEEENS1_INS_5ValueEEE",
            "__ZN2v818EmbedderStateScopeC1EPNS_7IsolateENS_5LocalINS_7ContextEEENS_16EmbedderStateTagE",
            "_uv_req_size",
            "__ZNK2v88internal8compiler23CompilationDependencies32TransitionDependencyOffTheRecordENS1_6MapRefE",
            "_base64_decode_utf16le",
            "_uv_pipe_getsockname",
            "__ZN2v88internal35IsolateFromNeverReadOnlySpaceObjectEm",
            "__ZN2v88Function3NewENS_5LocalINS_7ContextEEEPFvRKNS_20FunctionCallbackInfoINS_5ValueEEEENS1_IS5_EEiNS_19ConstructorBehaviorENS_14SideEffectTypeE",
            "_uv_dlopen",
            "_napi_create_function",
            "_utf8_string_replace_literal",
            "__ZN2v813EmbedderGraph6V8NodeERKNS_5LocalINS_4DataEEE",
            "__ZN2v87Isolate29AllowJavascriptExecutionScopeD1Ev",
            "__ZN2v810TypedArray6LengthEv",
            "__ZNK2v814CpuProfileNode16GetBailoutReasonEv",
            "__ZN2v811HandleScopeC1EPNS_7IsolateE",
            "__ZN2v835TryToCopyAndConvertArrayToCppBufferILj262144EjEEbNS_5LocalINS_5ArrayEEEPT0_j",
            "__ZN2v817SharedArrayBuffer3NewEPNS_7IsolateEmNS_30BackingStoreInitializationModeE",
            "__ZN2v815SnapshotCreatorC2EPKlPKNS_11StartupDataE",
            "__ZN2v815ValueSerializerD1Ev",
            "_napi_get_value_uint32",
            "_js_create_typedarray",
            "_uv_pipe_chmod",
            "__ZN2v87Context30AllowCodeGenerationFromStringsEb",
            "__ZN2v88internal7Version9GetSONAMEENS_4base6VectorIcEE",
            "__ZNK2v83Map7AsArrayEv",
            "_bare_addon_load_dynamic",
            "__ZN2v817ValueDeserializerC1EPNS_7IsolateEPKhm",
            "_utf8_string_substring",
            "__ZNK2v810CpuProfile12GetStartTimeEv",
            "__ZNK2v86Object18InternalFieldCountEv",
            "__ZN2v86Object25GetCreationContextCheckedEPNS_7IsolateE",
            "__ZNK2v814CpuProfileNode8GetChildEi",
            "__ZNK2v85Value10IsWasmNullEv",
            "__ZN2v89Int8Array3NewENS_5LocalINS_11ArrayBufferEEEmm",
            "__ZNK2v86String9ValueView12CheckOneByteEb",
            "__ZN2v813BooleanObject3NewEPNS_7IsolateEb",
            "_js_get_env_platform",
            "_uv_fs_get_result",
            "__ZN5cppgc8internal27CrossThreadPersistentRegionC1ERKNS0_23FatalOutOfMemoryHandlerE",
            "_uv_loop_delete",
            "_napi_get_buffer_info",
            "__ZN12v8_inspector31V8SerializationDuplicateTracker23SetKnownSerializedValueEN2v85LocalINS1_5ValueEEEPNS_8protocol15DictionaryValueE",
            "__ZN12v8_inspector31V8SerializationDuplicateTracker24FindKnownSerializedValueEN2v85LocalINS1_5ValueEEE",
            "_js_detach_arraybuffer",
            "__ZNK2v85Value9ToNumericENS_5LocalINS_7ContextEEE",
            "__ZN2v85Value6TypeOfEPNS_7IsolateE",
            "__ZNK2v86String10IsExternalEv",
            "_js_is_int32",
            "_uv_fs_read",
            "__ZN5cppgc8internal27CrossThreadPersistentRegion17ClearAllUsedNodesEv",
            "_uv_fs_closedir",
            "_uv_is_writable",
            "__ZN2v812HeapProfiler24StopSamplingHeapProfilerEv",
            "__ZN2v811CpuProfiler13StopProfilingENS_5LocalINS_6StringEEE",
            "_bare_version",
            "__ZNK2v812HeapSnapshot9SerializeEPNS_12OutputStreamENS0_19SerializationFormatE",
            "__ZN2v87Isolate3NewERKNS_12IsolateGroupERKNS0_12CreateParamsE",
            "__ZN2v82V832SetReturnAddressLocationResolverEPFmmE",
            "__ZN2v812IsolateGroupC2EOPNS_8internal12IsolateGroupE",
            "__ZNK2v814CpuProfileNode13GetSourceTypeEv",
            "__ZNK2v87Message12GetEndColumnEv",
            "_js_is_external",
            "_uv_sem_post",
            "__ZNK2v810FixedArray3GetENS_5LocalINS_7ContextEEEi",
            "__ZN2v88TryCatchC1EPNS_7IsolateE",
            "__ZN2v86Object16GetPropertyNamesENS_5LocalINS_7ContextEEENS_17KeyCollectionModeENS_14PropertyFilterENS_11IndexFilterENS_17KeyConversionModeE",
            "__ZN2v819CpuProfilingOptionsC2ENS_16CpuProfilingModeEjiNS_10MaybeLocalINS_7ContextEEE",
            "__ZN2v811Uint16Array3NewENS_5LocalINS_11ArrayBufferEEEmm",
            "__ZN2v87Isolate31SuppressMicrotaskExecutionScopeD2Ev",
            "__ZNK2v86String14WriteOneByteV2EPNS_7IsolateEjjPhi",
            "_uv_async_send",
            "__ZN5cppgc8internal11GCInfoTableD1Ev",
            "__ZN2v810Int32Array9CheckCastEPNS_5ValueE",
            "__ZN2v814ScriptCompiler22CompileUnboundInternalEPNS_7IsolateEPNS0_6SourceENS0_14CompileOptionsENS0_13NoCacheReasonE",
            "__ZN2v88internal8compiler23CompilationDependencies37DependOnArrayBufferDetachingProtectorEv",
            "__ZNK2v86String32VerifyExternalStringResourceBaseEPNS0_26ExternalStringResourceBaseENS0_8EncodingE",
            "_utf32_length_from_latin1",
            "_uv_getrusage_thread",
            "_uv_os_gethostname",
            "_js_create_threadsafe_function",
            "__ZN2v86Module8EvaluateENS_5LocalINS_7ContextEEE",
            "__ZN2v811HandleScopeD2Ev",
            "__ZN2v87Isolate6FreezeEb",
            "_js_create_context",
            "_js_fatal_exception",
            "__ZN2v814ScriptCompiler20ConsumeCodeCacheTask3RunEv",
            "_uv_timer_stop",
            "__ZN12v8_inspector14V8StackTraceIdC2EmNSt4__Cr4pairIxxEEb",
            "_napi_reject_deferred",
            "_js_create_uint32",
            "_uv_fs_open",
            "__ZN2v86Object5CloneEv",
            "_uv_os_homedir",
            "_js_is_biguint64array",
            "_uv_tty_get_vterm_state",
            "__ZN5cppgc8internal24PrefinalizerRegistrationC1EPvPFbRKNS_14LivenessBrokerES2_E",
            "__ZN2v83Map5ClearEv",
            "__ZN2v88External3NewEPNS_7IsolateEPv",
            "_js_is_async_function",
            "_uv_wtf8_to_utf16",
            "_napi_convert_from_threadsafe_function_call_mode",
            "_uv_req_get_data",
            "__ZN2v812IsolateGroupC1EOPNS_8internal12IsolateGroupE",
            "_uv_fs_opendir",
            "__ZN2v812HeapProfiler14ClearObjectIdsEv",
            "__ZNK2v814CpuProfileNode11GetHitCountEv",
            "__ZN2v82V816SetEntropySourceEPFbPhmE",
            "__ZNK2v85Value14ToDetailStringENS_5LocalINS_7ContextEEE",
            "_js_create_string_latin1",
            "__ZN2v816FunctionTemplate11HasInstanceENS_5LocalINS_5ValueEEE",
            "__ZNK2v87Integer5ValueEv",
            "_js_create_external_string_utf16le",
            "_js_is_uint32",
            "_uv_queue_work",
            "_uv_get_process_title",
            "__ZN2v814ScriptCompiler14StreamedSourceD1Ev",
            "__ZN2v88internal15ThreadIsolation13SplitJitPagesEmmmm",
            "__ZNK2v87Message10ErrorLevelEv",
            "_utf8_string_concat_character",
            "_uv_fs_lutime",
            "_napi_get_boolean",
            "__ZN2v815ArrayBufferView6BufferEv",
            "__ZN2v86BigInt9CheckCastEPNS_4DataE",
            "__ZN12v8_inspector8protocol7Runtime3API12RemoteObject10fromBinaryEPKhm",
            "__ZN2v87Context6GlobalEv",
            "__ZN2v87Isolate47SetHostImportModuleWithPhaseDynamicallyCallbackEPFNS_10MaybeLocalINS_7PromiseEEENS_5LocalINS_7ContextEEENS4_INS_4DataEEENS4_INS_5ValueEEENS4_INS_6StringEEENS_17ModuleImportPhaseENS4_INS_10FixedArrayEEEE",
            "__ZNK5cppgc8internal8AgeTable14GetAgeForRangeEmm",
            "__ZNK2v812HeapSnapshot11GetNodeByIdEj",
            "__ZN2v82V818SetFlagsFromStringEPKcm",
            "__ZNK2v85Value11IsInt8ArrayEv",
            "__ZNK2v85Value17IsArrayBufferViewEv",
            "__ZN2v85Value9CheckCastEPNS_4DataE",
            "_uv_rwlock_wrunlock",
            "__ZN2v815ValueSerializer10WriteValueENS_5LocalINS_7ContextEEENS1_INS_5ValueEEE",
            "__ZN2v818PropertyDescriptorD1Ev",
            "__ZN2v89Signature9CheckCastEPNS_4DataE",
            "_napi_clear_last_error_info",
            "__ZN2v86Symbol10GetReplaceEPNS_7IsolateE",
            "__ZNK2v85Value12IsInt32ArrayEv",
            "_uv_shutdown",
            "_napi_convert_from_typedarray_type",
            "__ZNK2v810StackFrame15GetFunctionNameEv",
            "__ZN2v88internal19MoveTracedReferenceEPPmS2_",
            "__ZN2v87Context17SetMicrotaskQueueEPNS_14MicrotaskQueueE",
            "__ZNK2v86String9IsOneByteEv",
            "_log_vinfo",
            "__ZN2v812NumberObject9CheckCastEPNS_5ValueE",
            "__ZNK2v813ModuleRequest19GetImportAttributesEv",
            "_uv_run",
            "_utf8_string_append_view",
            "_napi_get_reference_value",
            "_bare_thread_resume",
            "__ZNK2v87Message13GetStackTraceEv",
            "__ZNK5cppgc8internal27CrossThreadPersistentRegion10NodesInUseEv",
            "__ZN2v810Uint8Array3NewENS_5LocalINS_17SharedArrayBufferEEEmm",
            "__ZN2v88UnlockerD2Ev",
            "_js_is_regexp",
            "__ZN2v811ArrayBuffer9CheckCastEPNS_5ValueE",
            "__ZN2v813UnboundScript13GetScriptNameEv",
            "_napi_add_env_cleanup_hook",
            "__ZN2v89Int8Array9CheckCastEPNS_5ValueE",
            "__ZN2v812api_internal8MakeWeakEPmPvPFvRKNS_16WeakCallbackInfoIvEEENS_16WeakCallbackTypeE",
            "__ZN2v89Exception13CreateMessageEPNS_7IsolateENS_5LocalINS_5ValueEEE",
            "__ZN2v87Isolate31SuppressMicrotaskExecutionScopeC2EPS0_PNS_14MicrotaskQueueE",
            "_utf8_string_view_concat",
            "_js_throw_type_error",
            "__ZNK2v85Value10IsExternalEv",
            "__ZN2v811CpuProfiler3NewEPNS_7IsolateENS_22CpuProfilingNamingModeENS_23CpuProfilingLoggingModeE",
            "__ZNK2v88TryCatch7MessageEv",
            "__ZN2v818DictionaryTemplate9CheckCastEPNS_4DataE",
            "__ZNK2v812HeapSnapshot13GetNodesCountEv",
            "_uv_is_active",
            "__ZN2v88internal23StrongRootAllocatorBaseC1EPNS0_12LocalIsolateE",
            "__ZNK2v815ArrayBufferView9HasBufferEv",
            "__ZNK2v85Value10IsFunctionEv",
            "_uv_fs_get_path",
            "__ZN2v84Name15GetIdentityHashEv",
            "__ZN2v816FunctionTemplate19SetExceptionContextENS_16ExceptionContextE",
            "__ZN2v835TryToCopyAndConvertArrayToCppBufferILj196608EiEEbNS_5LocalINS_5ArrayEEEPT0_j",
            "__ZN2v88Function21FunctionProtoToStringENS_5LocalINS_7ContextEEE",
            "__ZN2v818PropertyDescriptor14set_enumerableEb",
            "_uv_tcp_close_reset",
            "_napi_create_uint32",
            "__ZN2v88internal15ThreadIsolation12SplitJitPageEmm",
            "_utf8_length_from_latin1",
            "__ZN2v812IsolateGroupD2Ev",
            "__ZN2v87Isolate21AddGCPrologueCallbackEPFvPS0_NS_6GCTypeENS_15GCCallbackFlagsEES2_",
            "__ZN2v89Exception16WasmCompileErrorENS_5LocalINS_6StringEEENS1_INS_5ValueEEE",
            "__ZN2v87Isolate15GetJSEntryStubsEv",
            "__ZN2v87Isolate29AllowJavascriptExecutionScopeD2Ev",
            "__ZN2v87Promise4ThenENS_5LocalINS_7ContextEEENS1_INS_8FunctionEEE",
            "__ZNK12v8_inspector12V8DebuggerId7isValidEv",
            "__ZN2v819SharedValueConveyorD1Ev",
            "__ZN2v87Isolate18SetMemorySaverModeEb",
            "_bare_terminate",
            "__ZN2v812HeapProfiler14FindObjectByIdEj",
            "_bare_thread_create",
            "__ZNK2v811StartupData7IsValidEv",
            "_uv_pipe_pending_instances",
            "__ZN2v814PrimitiveArray3GetEPNS_7IsolateEi",
            "_js_get_undefined",
            "__ZN2v86String18NewExternalTwoByteEPNS_7IsolateEPNS0_22ExternalStringResourceE",
            "_js_is_set_iterator",
            "__ZN2v88internal15ThreadIsolation26LookupJumpTableAllocationsEmmmm",
            "__ZNK2v814CpuProfileNode15GetFunctionNameEv",
            "__ZN5cppgc6subtle24NoGarbageCollectionScopeC1ERNS_10HeapHandleE",
            "_js_get_bindings",
            "__ZN2v810StackTrace17CurrentStackTraceEPNS_7IsolateEiNS0_17StackTraceOptionsE",
            "__ZN2v84Date3NewENS_5LocalINS_7ContextEEEd",
            "__ZN2v816TypecheckWitnessC1EPNS_7IsolateE",
            "__ZN2v88internal23StrongRootAllocatorBaseC2EPNS0_12LocalIsolateE",
            "_uv_udp_using_recvmmsg",
            "__ZN2v88UnlockerD1Ev",
            "_uv_pipe_getpeername",
            "__ZNK2v814CpuProfileNode15GetHitLineCountEv",
            "_napi_create_bigint_uint64",
            "_url_get_scheme",
            "__ZN2v811CpuProfiler14StartProfilingENS_5LocalINS_6StringEEEb",
            "__ZN2v86String12MakeExternalEPNS0_22ExternalStringResourceE",
            "__ZN2v820HeapObjectStatisticsC2Ev",
            "__ZN2v88internal8compiler23CompilationDependencies29DependOnNoSlackTrackingChangeENS1_6MapRefE",
            "__ZN12v8_inspector31V8SerializationDuplicateTracker20LinkExistingOrCreateEN2v85LocalINS1_5ValueEEEPb",
            "__ZN2v813WasmStreamingD1Ev",
            "__ZN12v8_inspector14V8StackTraceIdC2Ev",
            "__ZN2v814ScriptOrModule15GetResourceNameEv",
            "__ZN2v815MicrotasksScope15GetCurrentDepthEPNS_7IsolateE",
            "__ZN2v817ValueDeserializerD2Ev",
            "__ZN2v88internal8compiler23CompilationDependencies32DependOnConsistentJSFunctionViewENS1_13JSFunctionRefE",
            "__ZN2v822SharedMemoryStatisticsC2Ev",
            "_uv_replace_allocator",
            "_js_acquire_threadsafe_function",
            "_utf8_string_insert",
            "__ZN2v817ValueDeserializer10ReadHeaderENS_5LocalINS_7ContextEEE",
            "__ZNK2v810StackTrace13GetFrameCountEv",
            "__ZN2v815ValueSerializerC1EPNS_7IsolateEPNS0_8DelegateE",
            "_napi_is_dataview",
            "_js_is_exception_pending",
            "__ZN5cppgc8internal24PrefinalizerRegistrationC2EPvPFbRKNS_14LivenessBrokerES2_E",
            "_uv_cond_timedwait",
            "__ZN2v88internal15ThreadIsolation17UnregisterJitPageEmm",
            "__ZNK2v84Data9IsPrivateEv",
            "_js_instantiate_module",
            "_napi_create_error",
            "_js_set_named_property",
            "__ZN2v813WasmStreaming39SetMoreFunctionsCanBeSerializedCallbackENSt4__Cr8functionIFvNS_18CompiledWasmModuleEEEE",
            "__ZN2v88DataView3NewENS_5LocalINS_17SharedArrayBufferEEEmm",
            "__ZNK2v814CpuProfileNode25IsScriptSharedCrossOriginEv",
            "__ZN4heap4base23SuspendTagCheckingScopeC2Ev",
            "__ZN5cppgc8internal12WriteBarrier26DijkstraMarkingBarrierSlowEPKv",
            "__ZN2v87Isolate13DetachCppHeapEv",
            "_js_check_type_tag",
            "__ZN2v811CpuProfiler4StopEj",
            "__ZNK12v8_inspector12V8DebuggerId8toStringEv",
            "_js_is_null",
            "_uv_walk",
            "_utf8_string_init",
            "__ZN2v815ValueSerializer11WriteUint64Ey",
            "__ZNK2v818PropertyDescriptor12has_writableEv",
            "__ZN2v88internal15ThreadIsolation22TryLookupJitPageLockedEmm",
            "__ZN2v86String9ValueViewC1EPNS_7IsolateENS_5LocalIS0_EE",
            "__ZN2v813WasmStreaming6UnpackEPNS_7IsolateENS_5LocalINS_5ValueEEE",
            "_uv_has_ref",
            "_napi_call_function",
            "__ZN2v88internal8compiler23CompilationDependencies22DependOnFieldConstnessENS1_6MapRefES3_NS0_13InternalIndexE",
            "__ZN2v812api_internal19MoveGlobalReferenceEPPmS2_",
            "__ZN2v87Isolate22SetAddCrashKeyCallbackEPFvNS_10CrashKeyIdERKNSt4__Cr12basic_stringIcNS2_11char_traitsIcEENS2_9allocatorIcEEEEE",
            "__ZNK2v86String17IsExternalTwoByteEv",
            "__ZN12v8_inspector31V8SerializationDuplicateTrackerC1EN2v85LocalINS1_7ContextEEE",
            "__ZN2v85Array3NewEPNS_7IsolateEPNS_5LocalINS_5ValueEEEm",
            "__ZN2v85Array3NewEPNS_7IsolateEi",
            "__ZN2v815ValueSerializerC1EPNS_7IsolateE",
            "_js_set_array_elements",
            "_log_fatal",
            "__ZN2v86Object10GetIsolateEv",
            "_js_delete_module",
            "_uv_utf16_to_wtf8",
            "_napi_create_array",
            "_napi_create_async_work",
            "__ZN2v86BigInt12NewFromWordsENS_5LocalINS_7ContextEEEiiPKy",
            "__ZN2v88internal23StrongRootAllocatorBaseC1EPNS_7IsolateE",
            "__ZN5cppgc15ShutdownProcessEv",
            "__ZN2v86LockerD1Ev",
            "__ZN12v8_inspector14V8StackTraceIdC2ENS_10StringViewE",
            "_napi_create_promise",
            "_napi_set_property",
            "__ZN2v88internal8compiler23CompilationDependencies23DependOnObjectSlotValueENS1_13HeapObjectRefEiNS1_9ObjectRefE",
            "_uv_freeaddrinfo",
            "_utf16le_convert_to_latin1",
            "_uv_os_tmpdir",
            "_js_get_global",
            "__ZNK2v88Function29NewInstanceWithSideEffectTypeENS_5LocalINS_7ContextEEEiPNS1_INS_5ValueEEENS_14SideEffectTypeE",
            "_napi_convert_to_valuetype",
            "__ZN2v87Isolate13CopyCodePagesEmPNS_11MemoryRangeE",
            "_latin1_convert_to_utf16le",
            "_uv_update_time",
            "_napi_open_callback_scope",
            "_napi_set_last_error_info",
            "__ZN2v86Object18GetConstructorNameEv",
            "_base64_encode_utf16le",
            "__ZNK2v813HeapGraphNode5GetIdEv",
            "_uv_sleep",
            "__ZN2v86Object38SlowGetAlignedPointerFromInternalFieldEPNS_7IsolateEi",
            "__ZN2v88internal8compiler23CompilationDependencies25PrepareInstallPredictableEv",
            "_js_get_value_double",
            "_uv_fs_statfs",
            "__ZNK2v86String9WriteUtf8EPNS_7IsolateEPciPii",
            "__ZN2v86Object14DefinePropertyENS_5LocalINS_7ContextEEENS1_INS_4NameEEERNS_18PropertyDescriptorE",
            "__ZNK2v85Value14IsFloat16ArrayEv",
            "_napi_create_buffer_copy",
            "__ZN2v812api_internal8MakeWeakEPPm",
            "__ZNK2v812BackingStore4DataEv",
            "__ZN2v87Isolate17DumpAndResetStatsEv",
            "__ZNK2v85Value14IsFloat64ArrayEv",
            "__ZN2v812HeapProfiler16GetSnapshotCountEv",
            "_js_symbol_for",
            "__ZN2v823ExternalMemoryAccounter8DecreaseEPNS_7IsolateEm",
            "_log_info",
            "__ZN2v87Promise6ResultEv",
            "__ZNK2v816FunctionTemplate26IsLeafTemplateForApiObjectENS_5LocalINS_5ValueEEE",
            "__ZN2v817SharedArrayBuffer3NewEPNS_7IsolateENSt4__Cr10shared_ptrINS_12BackingStoreEEE",
            "_uv_fs_event_getpath",
            "__ZN5cppgc8internal20PersistentRegionBase7IterateERNS0_11RootVisitorE",
            "__ZN2v82V821SetDcheckErrorHandlerEPFvPKciS2_E",
            "__ZNK2v88Function15GetInferredNameEv",
            "__ZN2v814MicrotaskQueue3NewEPNS_7IsolateENS_16MicrotasksPolicyE",
            "_napi_unref_threadsafe_function",
            "_utf8_string_concat_view",
            "__ZNK2v88internal15ThreadIsolation16JitPageReference8ContainsEmmNS1_17JitAllocationTypeE",
            "__ZN2v815ArrayBufferView9CheckCastEPNS_5ValueE",
            "_uv_dlerror",
            "_js_is_set",
            "_napi_run_script",
            "_uv_key_create",
            "__ZNK2v86String19ContainsOnlyOneByteEv",
            "__ZN2v88internal22DisposeTracedReferenceEPm",
            "__ZNK2v810StackTrace5GetIDEv",
            "__ZN2v815ValueSerializer11WriteHeaderEv",
            "__ZN2v824EscapableHandleScopeBase10EscapeSlotEPm",
            "__ZN2v816FunctionTemplate17ReadOnlyPrototypeEv",
            "__ZN2v87Isolate22IsExecutionTerminatingEv",
            "__ZN2v88Template3SetENS_5LocalINS_4NameEEENS1_INS_4DataEEENS_17PropertyAttributeE",
            "__ZN2v87Context22GetExtrasBindingObjectEv",
            "_uv_thread_setaffinity",
            "_uv_gettimeofday",
            "__ZN2v813UnboundScript19GetSourceMappingURLEv",
            "__ZN2v812api_internal22AnnotateStrongRetainerEPmPKc",
            "__ZN2v812HeapProfiler16IsTakingSnapshotEv",
            "__ZN2v85Array7IterateENS_5LocalINS_7ContextEEEPFNS0_14CallbackResultEjNS1_INS_5ValueEEEPvES7_",
            "__ZN2v813WasmStreaming6SetUrlEPKcm",
            "__ZNK2v818PropertyDescriptor12configurableEv",
            "_js_is_int16array",
            "_napi_get_typedarray_info",
            "__ZN2v89Exception16WasmSuspendErrorENS_5LocalINS_6StringEEENS1_INS_5ValueEEE",
            "_napi_create_dataview",
            "__ZN2v814ScriptCompiler14StreamedSourceC2ENSt4__Cr10unique_ptrINS0_20ExternalSourceStreamENS2_14default_deleteIS4_EEEENS1_8EncodingE",
            "_napi_release_threadsafe_function",
            "_napi_get_named_property",
            "_napi_get_new_target",
            "__ZN2v812api_internal33ConvertToJSGlobalProxyIfNecessaryEm",
            "_uv_loop_new",
            "__ZN2v88TryCatchC2EPNS_7IsolateE",
            "_uv_set_process_title",
            "_uv_free_interface_addresses",
            "__ZN2v812StringObject3NewEPNS_7IsolateENS_5LocalINS_6StringEEE",
            "__ZN5cppgc8internal20PersistentRegionLockD2Ev",
            "_uv_spawn",
            "_uv_idle_start",
            "_napi_acquire_threadsafe_function",
            "_napi_create_reference",
            "_uv_udp_try_send",
            "__ZN2v815SnapshotCreatorC2EPNS_7IsolateEPKlPKNS_11StartupDataEb",
            "_uv_os_free_group",
            "__ZN2v87Isolate35SetAbortOnUncaughtExceptionCallbackEPFbPS0_E",
            "__ZN2v86Object20GetRealNamedPropertyENS_5LocalINS_7ContextEEENS1_INS_4NameEEE",
            "__ZN2v86Symbol14GetUnscopablesEPNS_7IsolateE",
            "_napi_is_detached_arraybuffer",
            "_uv_req_type_name",
            "__ZNK2v86String15CanMakeExternalENS0_8EncodingE",
            "__ZNK2v85Value18IsWasmMemoryObjectEv",
            "_hex_encode_utf16le",
            "__ZNK2v818PropertyDescriptor3setEv",
            "__ZN2v818DictionaryTemplate3NewEPNS_7IsolateENS_10MemorySpanIKNSt4__Cr17basic_string_viewIcNS4_11char_traitsIcEEEEEE",
            "__ZN2v86Object18CreateDataPropertyENS_5LocalINS_7ContextEEENS1_INS_4NameEEENS1_INS_5ValueEEE",
            "__ZN2v88internal23StrongRootAllocatorBase15deallocate_implEPmm",
            "__ZNK2v85Value23IsModuleNamespaceObjectEv",
            "__ZN2v811ArrayBuffer15NewBackingStoreEPvmPFvS1_mS1_ES1_",
            "_uv_tcp_simultaneous_accepts",
            "__ZN2v89Signature3NewEPNS_7IsolateENS_5LocalINS_16FunctionTemplateEEE",
            "__ZNK2v88TryCatch11CanContinueEv",
            "__ZN2v88Function4CallENS_5LocalINS_7ContextEEENS1_INS_5ValueEEEiPS5_",
            "_uv_poll_start",
            "_js_is_generator",
            "__ZN2v82V827SetFatalMemoryErrorCallbackEPFvPKcRKNS_10OOMDetailsEE",
            "__ZN2v88internal23StrongRootAllocatorBase13allocate_implEm",
            "_napi_create_string_latin1",
            "__ZN2v88TryCatchD1Ev",
            "__ZN2v88internal23StrongRootAllocatorBaseC1EPNS0_9LocalHeapE",
            "__ZN2v86Module9CheckCastEPNS_4DataE",
            "__ZN2v87Isolate32DisallowJavascriptExecutionScopeD2Ev",
            "_uv_signal_stop",
            "__ZN2v815SnapshotCreator10CreateBlobENS0_20FunctionCodeHandlingE",
            "_utf8_string_replace_view",
            "_napi_get_property_names",
            "__ZN2v87Isolate37AdjustAmountOfExternalAllocatedMemoryEx",
            "__ZNK2v85Value13IsUint16ArrayEv",
            "__ZNK2v87Message14GetEndPositionEv",
            "__ZN2v88internal15ThreadIsolation19LookupJitAllocationEmmNS1_17JitAllocationTypeEb",
            "_napi_create_external_buffer",
            "__ZN2v812BackingStore12EmptyDeleterEPvmS1_",
            "__ZN2v818EmbedderStateScopeD1Ev",
            "__ZN2v88Function7SetNameENS_5LocalINS_6StringEEE",
            "__ZN2v818DictionaryTemplate11NewInstanceENS_5LocalINS_7ContextEEENS_10MemorySpanINS_10MaybeLocalINS_5ValueEEEEE",
            "_js_create_reference",
            "_url_destroy",
            "_uv_ip4_name",
            "__ZN2v811CpuProfiler7DisposeEv",
            "__ZN2v812HeapProfiler12QueryObjectsENS_5LocalINS_7ContextEEEPNS_20QueryObjectPredicateEPNSt4__Cr6vectorINS_6GlobalINS_6ObjectEEENS6_9allocatorISA_EEEE",
            "__ZN5cppgc8internal8AgeTable14SetAgeForRangeEmmNS1_3AgeENS1_19AdjacentCardsPolicyE",
            "_uv_signal_start_oneshot",
            "_uv_fs_chown",
            "__ZN2v810Int16Array3NewENS_5LocalINS_17SharedArrayBufferEEEmm",
            "__ZNK2v814CpuProfileNode9GetParentEv",
            "__ZNK5cppgc8internal20PersistentRegionBase10NodesInUseEv",
            "_js_open_handle_scope",
            "_js_get_value_bigint_uint64",
            "__ZN2v82V819SetSnapshotDataBlobEPNS_11StartupDataE",
            "_utf8_string_append",
            "_napi_has_own_property",
            "__ZN2v88TryCatchdaEPvm",
            "_uv_pipe_init",
            "__ZN2v87Isolate24SetPromiseRejectCallbackEPFvNS_20PromiseRejectMessageEE",
            "__ZNK2v87Message13GetLineNumberENS_5LocalINS_7ContextEEE",
            "__ZN2v82V810InitializeEi",
            "__ZN2v88External9CheckCastEPNS_5ValueE",
            "_uv_strerror",
            "_uv_tty_set_mode",
            "_bare_on_teardown",
            "_napi_get_value_bigint_int64",
            "_uv_fs_event_init",
            "__ZN2v89CodeEvent13GetScriptLineEv",
            "_napi_detach_arraybuffer",
            "__ZN2v88internal15ThreadIsolation33UnregisterJitAllocationForTestingEmm",
            "__ZN2v87Isolate18NumberOfHeapSpacesEv",
            "_js_add_deferred_teardown_callback",
            "_uv_fs_utime",
            "_uv_poll_stop",
            "_napi_get_last_error_info",
            "__ZN2v812HeapProfiler16TakeHeapSnapshotERKNS0_19HeapSnapshotOptionsE",
            "__ZN2v87Isolate19HasPendingExceptionEv",
            "__ZN2v87Promise13MarkAsHandledEv",
            "__ZN2v813WasmStreamingC2ENSt4__Cr10unique_ptrINS0_17WasmStreamingImplENS1_14default_deleteIS3_EEEE",
            "__ZN2v88internal20ValidateCallbackInfoINS_5ArrayEEEbRKNS_20PropertyCallbackInfoIT_EE",
            "__ZN2v87Isolate12CreateParamsC2Ev",
            "_uv_hrtime",
            "_uv_udp_get_send_queue_size",
            "_napi_has_named_property",
            "__ZN2v88internal8compiler23CompilationDependencies37DependOnOwnConstantDictionaryPropertyENS1_11JSObjectRefENS0_13InternalIndexENS1_9ObjectRefE",
            "_napi_set_element",
            "_uv_fs_rename",
            "_bare_on_thread",
            "_uv_os_unsetenv",
            "__ZNK2v85Value8IsUint32Ev",
            "_uv_thread_join",
            "__ZNK2v86Object10IsCallableEv",
            "_log_error",
            "__ZN2v817Uint8ClampedArray9CheckCastEPNS_5ValueE",
            "_url_init",
            "__ZNK2v812NumberObject7ValueOfEv",
            "__ZN2v87Isolate41SetCaptureStackTraceForUncaughtExceptionsEbiNS_10StackTrace17StackTraceOptionsE",
            "__ZNK2v85Value15FullIsUndefinedEv",
            "_js_release_typedarray_view",
            "_uv_fs_rmdir",
            "__ZN2v816FunctionTemplate15RemovePrototypeEv",
            "__ZN2v88internal23StrongRootAllocatorBaseC1EPNS0_7IsolateE",
            "__ZN12v8_inspector12V8DebuggerIdC1ENSt4__Cr4pairIxxEE",
            "__ZN2v85Proxy10GetHandlerEv",
            "__ZNK2v814CpuProfileNode18GetFunctionNameStrEv",
            "__ZN2v87Context10DeepFreezeEPNS0_18DeepFreezeDelegateE",
            "__ZN2v814ScriptCompiler14StreamedSourceC1ENSt4__Cr10unique_ptrINS0_20ExternalSourceStreamENS2_14default_deleteIS4_EEEENS1_8EncodingE",
            "__ZNK2v85Value18IsWasmModuleObjectEv",
            "_uv_fs_scandir_next",
            "_base64_decode_utf8",
            "__ZN2v87Isolate25HasPendingBackgroundTasksEv",
            "__ZN2v813UnboundScript20BindToCurrentContextEv",
            "__ZN2v86Locker8IsLockedEPNS_7IsolateE",
            "__ZN2v811HandleScopeC2EPNS_7IsolateE",
            "__ZN2v88internal15ThreadIsolation35RegisterInstructionStreamAllocationEmmb",
            "__ZNK2v84Data8IsModuleEv",
            "_napi_create_string_utf8",
            "__ZN2v812IsolateGroupC2EOS0_",
            "__ZN2v815SealHandleScopeC1EPNS_7IsolateE",
            "__ZN2v87Integer9CheckCastEPNS_4DataE",
            "__ZN2v89CodeEvent10GetCommentEv",
            "_uv_backend_timeout",
            "__ZN2v815ValueSerializer37SetTreatArrayBufferViewsAsHostObjectsEb",
            "_js_get_named_property",
            "_js_create_external_sharedarraybuffer",
            "__ZNK2v819CpuProfilingOptions18raw_filter_contextEv",
            "__ZN2v87CppHeap42EnableDetachedGarbageCollectionsForTestingEv",
            "_napi_get_value_date",
            "_utf32_validate",
            "_uv_get_total_memory",
            "__ZN2v83Map3HasENS_5LocalINS_7ContextEEENS1_INS_5ValueEEE",
            "_uv_thread_create",
            "__ZNK2v85Value10IsDataViewEv",
            "__ZN2v86String9Utf8ValueC2EPNS_7IsolateENS_5LocalINS_5ValueEEENS0_12WriteOptionsE",
            "__ZNK2v85Value10FullIsTrueEv",
            "__ZNK2v83Set7AsArrayEv",
            "_uv_loadavg",
            "__ZNK2v811ArrayBuffer12IsDetachableEv",
            "_uv_fs_link",
            "__ZN12v8_inspector8String16C1EPKc",
            "__ZNK2v88Function11NewInstanceENS_5LocalINS_7ContextEEEiPNS1_INS_5ValueEEE",
            "__ZN12v8_inspector8String16C2EPKDs",
            "__ZN2v814ObjectTemplate11SetCodeLikeEv",
            "__ZN2v811CpuProfiler19SetSamplingIntervalEi",
            "__ZN2v88internal15ThreadIsolation10InitializeEPNS_23ThreadIsolatedAllocatorE",
            "__ZN2v811CpuProfiler5StartENS_19CpuProfilingOptionsENSt4__Cr10unique_ptrINS_24DiscardedSamplesDelegateENS2_14default_deleteIS4_EEEE",
            "_napi_fatal_exception",
            "__ZN2v814ObjectTemplate10SetHandlerERKNS_33NamedPropertyHandlerConfigurationE",
            "__ZNK2v85Value5IsMapEv",
            "_log_debug",
            "_napi_is_exception_pending",
            "_uv_fs_poll_getpath",
            "__ZN2v817ValueDeserializer8Delegate22GetSharedValueConveyorEPNS_7IsolateE",
            "__ZNK2v810StackFrame24GetScriptNameOrSourceURLEv",
            "__ZN2v87Isolate23GetDataFromSnapshotOnceEm",
            "_napi_get_value_bool",
            "__ZN2v812Float64Array3NewENS_5LocalINS_17SharedArrayBufferEEEmm",
            "_uv_is_readable",
            "__ZN2v814ScriptCompiler15CompileFunctionENS_5LocalINS_7ContextEEEPNS0_6SourceEmPNS1_INS_6StringEEEmPNS1_INS_6ObjectEEENS0_14CompileOptionsENS0_13NoCacheReasonE",
            "__ZNK2v86BigInt10Int64ValueEPb",
            "_utf8_string_concat_literal",
            "__ZN2v87Isolate32DisallowJavascriptExecutionScopeD1Ev",
            "__ZNK2v810CpuProfile14GetTopDownRootEv",
            "_uv_fs_futime",
            "_js_get_property",
            "_uv_handle_size",
            "__ZN5cppgc8internal20PersistentRegionLock12AssertLockedEv",
            "_js_create_type_error",
            "__ZN2v86Object6DeleteENS_5LocalINS_7ContextEEEj",
            "__ZN2v814ScriptCompiler20CachedDataVersionTagEv",
            "__ZN2v815ValueSerializer8Delegate23GetWasmModuleTransferIdEPNS_7IsolateENS_5LocalINS_16WasmModuleObjectEEE",
            "_napi_close_handle_scope",
            "_napi_is_date",
            "_napi_escape_handle",
            "__ZN2v87Isolate14SetEventLoggerEPFvPKciE",
            "__ZN2v812IsolateGroupD1Ev",
            "__ZN2v86String29ExternalOneByteStringResource15UpdateDataCacheEv",
            "__ZNK2v811StartupData13CanBeRehashedEv",
            "__ZN5cppgc8internal20PersistentRegionBaseC2ERKNS0_23FatalOutOfMemoryHandlerE",
            "_uv_pipe_connect2",
            "_js_get_module_namespace",
            "_napi_is_promise",
            "_uv_timer_init",
            "_uv_fs_readlink",
            "__ZNK2v810StackFrame6IsWasmEv",
            "__ZN2v814HeapStatisticsC1Ev",
            "__ZNK2v818PropertyDescriptor16has_configurableEv",
            "__ZNK2v87Promise10HasHandlerEv",
            "_napi_create_range_error",
            "_bare_exit",
            "_js_get_promise_result",
            "__ZN2v813RegisterStateaSERKS0_",
            "_js_define_properties",
            "_utf_swap_uint16",
            "_uv_req_set_data",
            "__ZN2v810TypedArray9CheckCastEPNS_5ValueE",
            "__ZN2v88internal15ThreadIsolation16JitPageReference15UnregisterRangeEmm",
            "__ZN2v88internal8compiler23CompilationDependencies31DependOnPromiseSpeciesProtectorEv",
            "__ZNK2v814ScriptCompiler20ConsumeCodeCacheTask29ShouldMergeWithExistingScriptEv",
            "_uv_os_get_passwd",
            "__ZN2v814ScriptCompiler26CreateCodeCacheForFunctionENS_5LocalINS_8FunctionEEE",
            "__ZN2v87Isolate15GetHeapProfilerEv",
            "_js_create_property_key_utf16le",
            "__ZNK2v84Data9IsContextEv",
            "_napi_strict_equals",
            "__ZN2v86Object33SetAlignedPointerInInternalFieldsEiPiPPv",
            "__ZNK2v88internal8compiler23CompilationDependencies31FieldTypeDependencyOffTheRecordENS1_6MapRefES3_NS0_13InternalIndexENS1_9ObjectRefE",
            "__ZNK2v86Module16HasTopLevelAwaitEv",
            "_napi_throw_error",
            "__ZNK2v814ObjectTemplate10IsCodeLikeEv",
            "__ZN2v88internal15ThreadIsolation16JitPageReference27UnregisterAllocationsExceptEmmRKNSt4__Cr6vectorImNS3_9allocatorImEEEE",
            "__ZN2v815ValueSerializerC2EPNS_7IsolateE",
            "__ZN2v89Exception10RangeErrorENS_5LocalINS_6StringEEENS1_INS_5ValueEEE",
            "__ZNK2v817SharedArrayBuffer10ByteLengthEv",
            "_bare_runtime_exit",
            "_napi_open_escapable_handle_scope",
            "__ZNK2v813CFunctionInfo12ArgumentInfoEj",
            "__ZN5cppgc8internal27CrossThreadPersistentRegionD2Ev",
            "_utf8_string_view_copy",
            "__ZN2v86String9Utf8ValueD2Ev",
            "__ZN2v815MicrotasksScopeD2Ev",
            "_napi_get_value_int64",
            "_napi_create_array_with_length",
            "_uv_write",
            "__ZN2v829TryHandleWebAssemblyTrapPosixEiP9__siginfoPv",
            "__ZN12v8_inspector13V8ContextInfo18executionContextIdEN2v85LocalINS1_7ContextEEE",
            "__ZNK2v86String12StringEqualsENS_5LocalIS0_EE",
            "__ZNK2v813ModuleRequest15GetSourceOffsetEv",
            "__ZN2v817ValueDeserializer8Delegate14ReadHostObjectEPNS_7IsolateE",
            "__ZNK2v86Module12IsGraphAsyncEv",
            "__ZN2v87Isolate22SetJitCodeEventHandlerENS_19JitCodeEventOptionsEPFvPKNS_12JitCodeEventEE",
            "__ZNK2v813HeapGraphNode16GetChildrenCountEv",
            "__ZN2v811HandleScopenwEm",
            "__ZN2v814ScriptCompiler14StreamedSourceD2Ev",
            "_js_call_function",
            "__ZN2v86Object19GetOwnPropertyNamesENS_5LocalINS_7ContextEEENS_14PropertyFilterENS_17KeyConversionModeE",
            "__ZN2v86Object3SetENS_5LocalINS_7ContextEEEjNS1_INS_5ValueEEE",
            "_napi_is_array",
            "__ZN2v87metrics13LongTaskStats3GetEPNS_7IsolateE",
            "_js_is_uint8array",
            "_js_escape_handle",
            "__ZN2v88internal32OptimizingCompileDispatcherQueue7DequeueERNS0_26OptimizingCompileTaskStateE",
            "_bare_addon_load_static",
            "__ZN2v817Uint8ClampedArray3NewENS_5LocalINS_11ArrayBufferEEEmm",
            "__ZN2v87Promise4ThenENS_5LocalINS_7ContextEEENS1_INS_8FunctionEEES5_",
            "_js_create_typed_function",
            "_napi_add_finalizer",
            "_uv_os_free_environ",
            "__ZNK2v85Value11ToPrimitiveENS_5LocalINS_7ContextEEE",
            "__ZN5cppgc6subtle24NoGarbageCollectionScopeC2ERNS_10HeapHandleE",
            "__ZN2v86Object3GetENS_5LocalINS_7ContextEEENS1_INS_5ValueEEE",
            "_uv_tcp_bind",
            "__ZN12v8_inspector8protocol8Debugger3API11SearchMatch10fromBinaryEPKhm",
            "__ZN2v86LockerD2Ev",
            "__ZN12v8_inspector8String1611fromUTF16LEEPKDsm",
            "_uv_os_get_group",
            "_js_create_function",
            "__ZN2v86String5ValueD2Ev",
            "__ZN2v816FunctionTemplate9CheckCastEPNS_4DataE",
            "__ZN2v87Isolate24CancelTerminateExecutionEv",
            "_uv_backend_fd",
            "__ZN2v817ValueDeserializer10ReadUint64EPy",
            "_uv_mutex_unlock",
            "_utf8_string_index_of_character",
            "__ZN2v815SnapshotCreatorD1Ev",
            "__ZNK2v810StackFrame13GetScriptNameEv",
            "_uv_inet_pton",
            "__ZN2v815SnapshotCreatorC2ERKNS_7Isolate12CreateParamsE",
            "__ZN2v823WasmMemoryMapDescriptor3NewEPNS_7IsolateEi",
            "__ZN2v87Isolate27ContextDisposedNotificationENS_17ContextDependantsE",
            "_js_get_typed_callback_info",
            "__ZN2v87Isolate37LocaleConfigurationChangeNotificationEv",
            "_js_is_promise",
            "_uv_version",
            "__ZN2v811Uint16Array3NewENS_5LocalINS_17SharedArrayBufferEEEmm",
            "__ZN2v86Symbol11GetIteratorEPNS_7IsolateE",
            "__ZN2v87Context29GetNumberOfEmbedderDataFieldsEv",
            "__ZN2v86Script7CompileENS_5LocalINS_7ContextEEENS1_INS_6StringEEEPNS_12ScriptOriginE",
            "__ZN2v813RegisterStateC2ERKS0_",
            "__ZN2v810Uint8Array9CheckCastEPNS_5ValueE",
            "__ZNK2v85Value8IsBigIntEv",
            "_utf8_string_view_last_index_of_character",
            "_uv_tty_set_vterm_state",
            "__ZN5cppgc8internal11GCInfoTable19CheckMemoryIsZeroedEPmm",
            "__ZN2v87Isolate21LowMemoryNotificationEv",
            "_js_define_class",
            "__ZN2v87Private6ForApiEPNS_7IsolateENS_5LocalINS_6StringEEE",
            "_uv_fs_get_statbuf",
            "__ZNK2v86Uint325ValueEv",
            "__ZN2v87Isolate20GetEmbeddedCodeRangeEPPKvPm",
            "_uv_sem_init",
            "__ZN2v86Object14HasOwnPropertyENS_5LocalINS_7ContextEEEj",
            "_uv_dlclose",
            "__ZN2v87Isolate24SetWasmStreamingCallbackEPFvRKNS_20FunctionCallbackInfoINS_5ValueEEEE",
            "__ZN2v817ValueDeserializerC2EPNS_7IsolateEPKhm",
            "__ZN2v87Isolate37SetWasmImportedStringsEnabledCallbackEPFbNS_5LocalINS_7ContextEEEE",
            "__ZN2v817Uint8ClampedArray3NewENS_5LocalINS_17SharedArrayBufferEEEmm",
            "_url_get_path",
            "_uv_key_get",
            "__ZN2v87Integer15NewFromUnsignedEPNS_7IsolateEj",
            "__ZN2v86Object30GetRealNamedPropertyAttributesENS_5LocalINS_7ContextEEENS1_INS_4NameEEE",
            "__ZN2v87Isolate34RequestGarbageCollectionForTestingENS0_21GarbageCollectionTypeE",
            "_napi_throw",
            "_bare_runtime_teardown",
            "_uv_clock_gettime",
            "__ZN2v87Isolate26SetWasmJSPIEnabledCallbackEPFbNS_5LocalINS_7ContextEEEE",
            "__ZN2v86Symbol3ForEPNS_7IsolateENS_5LocalINS_6StringEEE",
            "__ZN5cppgc17InitializeProcessEPN2v813PageAllocatorEm",
            "__ZN2v85Array3NewENS_5LocalINS_7ContextEEEmNSt4__Cr8functionIFNS_10MaybeLocalINS_5ValueEEEvEEE",
            "__ZN2v812Float32Array9CheckCastEPNS_5ValueE",
            "__ZN2v86Object36GetRealNamedPropertyInPrototypeChainENS_5LocalINS_7ContextEEENS1_INS_4NameEEE",
            "__ZN2v87Isolate36AutomaticallyRestoreInitialHeapLimitEd",
            "_js_on_uncaught_exception",
            "__ZN2v82V837InitializeExternalStartupDataFromFileEPKc",
            "__ZN12v8_inspector14V8StackTraceIdC1EmNSt4__Cr4pairIxxEE",
            "__ZNK2v818PropertyDescriptor8writableEv",
            "_utf8_string_last_index_of_character",
            "__ZN2v85Value10InstanceOfENS_5LocalINS_7ContextEEENS1_INS_6ObjectEEE",
            "__ZN2v818EmbedderStateScopeC2EPNS_7IsolateENS_5LocalINS_7ContextEEENS_16EmbedderStateTagE",
            "__ZN2v88internal15ThreadIsolation16JitPageReference20UnregisterAllocationEm",
            "__ZN2v84Date5ParseENS_5LocalINS_7ContextEEENS1_INS_6StringEEE",
            "__ZN2v88internal8compiler23CompilationDependencies14PrepareInstallEv",
            "_bare_setup",
            "_uv_os_get_passwd2",
            "_uv_get_constrained_memory",
            "_js_get_string_view",
            "_bare_on_exit",
            "__ZN2v88Function4CallEPNS_7IsolateENS_5LocalINS_7ContextEEENS3_INS_5ValueEEEiPS7_",
            "__ZN12v8_inspector8String168fromUTF8EPKcm",
            "__ZNK2v812BackingStore13MaxByteLengthEv",
            "_uv_recv_buffer_size",
            "_js_is_arguments",
            "__ZN2v814ObjectTemplate24SetCallAsFunctionHandlerEPFvRKNS_20FunctionCallbackInfoINS_5ValueEEEENS_5LocalIS2_EE",
            "_js_get_reference_value",
            "__ZN2v87Isolate29HandleExternalMemoryInterruptEv",
            "_js_create_bigint_uint64",
            "__ZN2v87Isolate24RemoveGCPrologueCallbackEPFvPS0_NS_6GCTypeENS_15GCCallbackFlagsEE",
            "__ZN2v86String18NewFromUtf8LiteralEPNS_7IsolateEPKcNS_13NewStringTypeEi",
            "__ZNK2v814CpuProfileNode15GetColumnNumberEv",
            "__ZN2v86BigInt3NewEPNS_7IsolateEx",
            "__ZN2v812HeapProfiler27GetDetachedJSWrapperObjectsEv",
            "__ZN2v87Isolate39DateTimeConfigurationChangeNotificationENS0_17TimeZoneDetectionE",
            "__ZNK2v86Object10IsCodeLikeEPNS_7IsolateE",
            "_uv_req_get_type",
            "__ZN2v811Uint32Array9CheckCastEPNS_5ValueE",
            "__ZN2v86Object14HasOwnPropertyENS_5LocalINS_7ContextEEENS1_INS_4NameEEE",
            "_napi_create_symbol",
            "__ZN2v87Context16NewRemoteContextEPNS_7IsolateENS_5LocalINS_14ObjectTemplateEEENS_10MaybeLocalINS_5ValueEEE",
            "__ZN2v819ResourceConstraints17ConfigureDefaultsEyy",
            "__ZN2v87Isolate45SetJavaScriptCompileHintsMagicEnabledCallbackEPFbNS_5LocalINS_7ContextEEEE",
            "__ZNK2v810CpuProfile9SerializeEPNS_12OutputStreamENS0_19SerializationFormatE",
            "__ZNK2v86String29ExternalOneByteStringResource25CheckCachedDataInvariantsEv",
            "__ZN12v8_inspector12StringBuffer6createENS_10StringViewE",
            "__ZNK2v86Module18IsSourceTextModuleEv",
            "__ZN2v86Object25GetCreationContextCheckedEv",
            "_uv_check_stop",
            "__ZN2v816FunctionTemplate17PrototypeTemplateEv",
            "_js_create_array_with_length",
            "__ZN2v817ValueDeserializerC2EPNS_7IsolateEPKhmPNS0_8DelegateE",
            "_uv_setup_args",
            "__ZN5cppgc8internal11GCInfoTableC2ERN2v813PageAllocatorERNS0_23FatalOutOfMemoryHandlerE",
            "_uv_try_write",
            "_js_finish_deferred_teardown_callback",
            "__ZN2v87CppHeap36CollectCustomSpaceStatisticsAtLastGCENSt4__Cr6vectorIN5cppgc16CustomSpaceIndexENS1_9allocatorIS4_EEEENS1_10unique_ptrINS_29CustomSpaceStatisticsReceiverENS1_14default_deleteIS9_EEEE",
            "__ZN2v86Object17SetIntegrityLevelENS_5LocalINS_7ContextEEENS_14IntegrityLevelE",
            "_uv_getnameinfo",
            "_uv_signal_init",
            "__ZN2v814BigUint64Array3NewENS_5LocalINS_17SharedArrayBufferEEEmm",
            "__ZN2v816WasmModuleObject7CompileEPNS_7IsolateENS_10MemorySpanIKhEE",
            "__ZN2v83Set3NewEPNS_7IsolateE",
            "__ZN2v88internal7Version9GetStringENS_4base6VectorIcEE",
            "__ZN2v87Isolate10GetCurrentEv",
            "__ZN2v87Promise9CheckCastEPNS_5ValueE",
            "__ZN2v88internal20ValidateCallbackInfoINS_5ValueEEEbRKNS_20FunctionCallbackInfoIT_EE",
            "__ZN2v87Isolate16RequestInterruptEPFvPS0_PvES2_",
            "_napi_create_arraybuffer",
            "_uv_fs_readdir",
            "__ZN2v86String5ValueD1Ev",
            "__ZN2v87Isolate22GetHeapSpaceStatisticsEPNS_19HeapSpaceStatisticsEm",
            "__ZNK2v810StackTrace8GetFrameEPNS_7IsolateEj",
            "_uv_pipe_pending_type",
            "__ZNK2v83Set4SizeEv",
            "__ZNK2v87Message14GetStartColumnEv",
            "__ZNK2v810StackFrame13IsConstructorEv",
            "__ZN2v88internal8compiler23CompilationDependencies21DependOnPretenureModeENS1_17AllocationSiteRefE",
            "_uv_getaddrinfo",
            "_js_close_escapable_handle_scope",
            "_js_create_synthetic_module",
            "__ZN2v88internal15ThreadIsolation16JitPageReference18RegisterAllocationEmmNS1_17JitAllocationTypeE",
            "__ZN2v86Object24GetOwnPropertyDescriptorENS_5LocalINS_7ContextEEENS1_INS_4NameEEE",
            "_js_has_named_property",
            "_uv_fs_unlink",
            "_uv_rwlock_destroy",
            "_uv_prepare_init",
            "__ZN2v88internal18ShouldThrowOnErrorEPNS0_7IsolateE",
            "__ZN2v87Isolate21AddGCEpilogueCallbackEPFvPS0_NS_6GCTypeENS_15GCCallbackFlagsEES2_",
            "__ZNK2v87Message13GetSourceLineENS_5LocalINS_7ContextEEE",
            "_js_get_env_loop",
            "__ZN2v815ValueSerializerD2Ev",
            "__ZN2v86Object19SetAccessorPropertyENS_5LocalINS_4NameEEENS1_INS_8FunctionEEES5_NS_17PropertyAttributeE",
            "__ZN5cppgc8internal12WriteBarrier38GenerationalBarrierForSourceObjectSlowERKNS0_18CagedHeapLocalDataEPKvPNS_10HeapHandleE",
            "_napi_convert_to_threadsafe_function_release_mode",
            "__ZN2v86Object20HasRealNamedPropertyENS_5LocalINS_7ContextEEENS1_INS_4NameEEE",
            "_js_get_element",
            "__ZN2v816WasmMemoryObject9CheckCastEPNS_5ValueE",
            "__ZN2v87Isolate31SetExceptionPropagationCallbackEPFvNS_27ExceptionPropagationMessageEE",
            "__ZN2v814ObjectTemplate22SetAccessCheckCallbackEPFbNS_5LocalINS_7ContextEEENS1_INS_6ObjectEEENS1_INS_5ValueEEEES7_",
            "__ZN2v818PropertyDescriptorC2ENS_5LocalINS_5ValueEEES3_",
            "__ZN5cppgc8internal20PersistentRegionBase17ClearAllUsedNodesEv",
            "__ZN2v88internal23StrongRootAllocatorBaseC2EPNS0_9LocalHeapE",
            "_napi_create_int32",
            "__ZN5cppgc6subtle30DisallowGarbageCollectionScope26IsGarbageCollectionAllowedERNS_10HeapHandleE",
            "__ZN2v812BackingStoreD1Ev",
            "__ZN2v87Isolate36SetIsJSApiWrapperNativeErrorCallbackEPFbPS0_NS_5LocalINS_6ObjectEEEE",
            "_uv_thread_create_ex",
            "__ZN2v810CpuProfile6DeleteEv",
            "__ZN5cppgc8internal27CrossThreadPersistentRegionD1Ev",
            "_js_get_property_names",
            "_uv_fs_close",
            "__ZNK2v84Date11ToUTCStringEv",
            "__ZN2v87Isolate26MemoryPressureNotificationENS_19MemoryPressureLevelE",
            "__ZN2v86String9Utf8ValueD1Ev",
            "__ZN2v86String9Utf8ValueC1EPNS_7IsolateENS_5LocalINS_5ValueEEENS0_12WriteOptionsE",
            "_uv_udp_getsockname",
            "__ZN2v88Template19SetAccessorPropertyENS_5LocalINS_4NameEEENS1_INS_16FunctionTemplateEEES5_NS_17PropertyAttributeE",
            "__ZN2v86Object19ObjectProtoToStringENS_5LocalINS_7ContextEEE",
            "__ZN2v86Symbol14GetToStringTagEPNS_7IsolateE",
            "__ZNK2v86String22ExternalStringResource25CheckCachedDataInvariantsEv",
            "_js_create_object",
            "_utf8_string_view_concat_view",
            "__ZNK2v85Value9ToBooleanEPNS_7IsolateE",
            "_napi_get_null",
            "__ZN2v812BackingStoreD2Ev",
            "__ZN2v88internal23StrongRootAllocatorBaseC2EPNS_7IsolateE",
            "_js_on_unhandled_rejection",
            "__ZNK2v86BigInt12ToWordsArrayEPiS1_Py",
            "__ZN2v88internal20ValidateCallbackInfoINS_5ValueEEEbRKNS_20PropertyCallbackInfoIT_EE",
            "__ZN2v816FunctionTemplate16InstanceTemplateEv",
            "__ZN2v87Isolate32IsHeapLimitIncreasedForDebuggingEv",
            "_uv_rwlock_trywrlock",
            "__ZNK2v85Value17IsGeneratorObjectEv",
            "__ZN2v87Isolate46SetGetExternallyAllocatedMemoryInBytesCallbackEPFmvE",
            "__ZN2v812HeapProfiler24StartTrackingHeapObjectsEb",
            "__ZNK2v86Module12GetExceptionEv",
            "__ZN2v816FunctionTemplate25NewWithCFunctionOverloadsEPNS_7IsolateEPFvRKNS_20FunctionCallbackInfoINS_5ValueEEEENS_5LocalIS4_EENSA_INS_9SignatureEEEiNS_19ConstructorBehaviorENS_14SideEffectTypeERKNS_10MemorySpanIKNS_9CFunctionEEE",
            "__ZN2v89Exception13GetStackTraceENS_5LocalINS_5ValueEEE",
            "__ZN5cppgc8internal20PersistentRegionBaseD1Ev",
            "_napi_open_handle_scope",
            "__ZNK2v86String33GetExternalStringResourceBaseSlowEPNS0_8EncodingE",
            "_js_request_garbage_collection",
            "__ZN12v8_inspector8protocol7Runtime3API10StackTrace10fromBinaryEPKhm",
            "_js_create_range_error",
            "_uv_dlsym",
            "__ZNK2v86BigInt9WordCountEv",
            "__ZN2v88internal8compiler23CompilationDependencies21DependOnElementsKindsENS1_17AllocationSiteRefE",
            "_napi_has_property",
            "__ZN2v87Isolate21SetWasmModuleCallbackEPFbRKNS_20FunctionCallbackInfoINS_5ValueEEEE",
            "__ZNK2v85Value12IntegerValueENS_5LocalINS_7ContextEEE",
            "__ZNK2v810CpuProfile18GetSampleTimestampEi",
            "__ZNK2v85Proxy9IsRevokedEv",
            "__ZNK2v87Boolean5ValueEv",
            "_utf8_string_view_init",
            "__ZN2v87Context16SetSecurityTokenENS_5LocalINS_5ValueEEE",
            "__ZN2v86Symbol9GetSearchEPNS_7IsolateE",
            "__ZN2v811Uint32Array3NewENS_5LocalINS_11ArrayBufferEEEmm",
            "__ZN2v88TryCatchD2Ev",
            "__ZNK2v86String12Utf8LengthV2EPNS_7IsolateE",
            "_napi_delete_element",
            "__ZN2v817ValueDeserializer8Delegate26GetSharedArrayBufferFromIdEPNS_7IsolateEj",
            "__ZN2v88internal15ThreadIsolation18WriteProtectMemoryEmmNS_13PageAllocator10PermissionE",
            "_js_destroy_inspector",
            "__ZNK2v87Isolate10GetCppHeapEv",
            "__ZN2v86Object6UnwrapEPNS_7IsolateEmNS_22CppHeapPointerTagRangeE",
            "__ZN2v87Context17GetMicrotaskQueueEv",
            "__ZN12v8_inspector8protocol6Binary10fromBase64ERKNS_8String16EPb",
            "_js_instanceof",
            "__ZN2v88internal8compiler23CompilationDependencies24DependOnMegaDOMProtectorEv",
            "__ZN2v88TryCatch10SetVerboseEb",
            "_js_throw_error",
            "__ZN2v87Isolate16EnqueueMicrotaskENS_5LocalINS_8FunctionEEE",
            "_js_is_function",
            "_napi_create_string_utf16",
            "_napi_cancel_async_work",
            "__ZN2v88TryCatch17SetCaptureMessageEb",
            "_utf8_string_insert_view",
            "_uv_listen",
            "_uv_ip6_name",
            "_uv_fs_mkdir",
            "_napi_remove_wrap",
            "__ZN2v86Object5CloneEPNS_7IsolateE",
            "_uv_os_getppid",
            "__ZN2v86String5ValueC2EPNS_7IsolateENS_5LocalINS_5ValueEEE",
            "_js_is_arraybuffer",
            "__ZN2v87Isolate7DisposeEv",
            "_js_throw_range_errorf",
            "_uv_sem_wait",
            "__ZN2v813BigInt64Array9CheckCastEPNS_5ValueE",
            "__ZN2v87Isolate46SetSharedArrayBufferConstructorEnabledCallbackEPFbNS_5LocalINS_7ContextEEEE",
            "_napi_throw_range_error",
            "__ZN2v816FunctionTemplate16SetInterfaceNameENS_5LocalINS_6StringEEE",
            "__ZN2v87Isolate28GetCurrentHostDefinedOptionsEv",
            "__ZN12v8_inspector31V8SerializationDuplicateTrackerC2EN2v85LocalINS1_7ContextEEE",
            "__ZN5cppgc8internal12WriteBarrier23GenerationalBarrierSlowERKNS0_18CagedHeapLocalDataERKNS0_8AgeTableEPKvmPNS_10HeapHandleE",
            "_napi_get_global",
            "_utf8_string_replace",
            "__ZN2v86BigInt15NewFromUnsignedEPNS_7IsolateEy",
            "_utf8_string_view_index_of_character",
            "__ZN2v815ValueSerializer8Delegate19HasCustomHostObjectEPNS_7IsolateE",
            "__ZN2v811CpuProfiler13CollectSampleEPNS_7IsolateENSt4__Cr8optionalIyEE",
            "_napi_get_and_clear_last_exception",
            "_napi_create_object",
            "__ZN2v87Context31SetAlignedPointerInEmbedderDataEiPv",
            "_js_unwrap",
            "__ZNK2v86Object27HasIndexedLookupInterceptorEv",
            "_napi_is_error",
            "_uv_fs_fchmod",
            "_js_destroy_platform",
            "__ZN2v87Isolate9InContextEv",
            "__ZNK2v88Function15GetScriptOriginEv",
            "_js_terminate_execution",
            "__ZNK2v87Message10GetIsolateEv",
            "_uv_pipe_bind",
            "__ZN2v817ValueDeserializer25TransferSharedArrayBufferEjNS_5LocalINS_17SharedArrayBufferEEE",
            "_js_set_module_export",
            "__ZN12v8_inspector18V8InspectorSession17canDispatchMethodENS_10StringViewE",
            "__ZN2v87Promise5StateEv",
            "__ZN2v88internal20ValidateCallbackInfoINS_7IntegerEEEbRKNS_20PropertyCallbackInfoIT_EE",
            "_utf16le_convert_to_utf32",
            "_uv_fs_get_type",
            "__ZN2v87Context12FromSnapshotEPNS_7IsolateEmNS_33DeserializeInternalFieldsCallbackEPNS_22ExtensionConfigurationENS_10MaybeLocalINS_5ValueEEEPNS_14MicrotaskQueueENS_30DeserializeContextDataCallbackENS_29DeserializeAPIWrapperCallbackE",
            "__ZNK2v86Object13IsConstructorEv",
            "_uv_udp_set_membership",
            "__ZNK2v813ModuleRequest12GetSpecifierEv",
            "__ZNK2v86String17IsExternalOneByteEv",
            "__ZN2v87Isolate24AddNearHeapLimitCallbackEPFmPvmmES1_",
            "__ZN2v86Object13DeletePrivateENS_5LocalINS_7ContextEEENS1_INS_7PrivateEEE",
            "_uv_version_string",
            "__ZN2v814ObjectTemplate9CheckCastEPNS_4DataE",
            "__ZN2v87Isolate24RemoveGCEpilogueCallbackEPFvPS0_NS_6GCTypeENS_15GCCallbackFlagsEPvES4_",
            "_utf8_string_concat",
            "_uv_fs_chmod",
            "__ZN2v87Isolate21AddGCPrologueCallbackEPFvPS0_NS_6GCTypeENS_15GCCallbackFlagsEPvES4_S2_",
            "__ZNK2v86Module17IsSyntheticModuleEv",
            "_napi_get_undefined",
            "__ZN2v89CFunctionC2EPKvPKNS_13CFunctionInfoE",
            "__ZNK2v85Value12BooleanValueEPNS_7IsolateE",
            "__ZN2v810FixedArray9CheckCastEPNS_4DataE",
            "__ZN2v819SharedValueConveyoraSEOS0_",
            "__ZNK2v810CpuProfile14GetSampleStateEi",
            "__ZN2v815ArrayBufferView11GetContentsENS_10MemorySpanIhEE",
            "_bare_load",
            "__ZN2v87Isolate5EnterEv",
            "_uv_wtf8_length_as_utf16",
            "__ZN2v812HeapProfiler22DeleteAllHeapSnapshotsEv",
            "__ZN2v812IsolateGroup6CreateEv",
            "__ZN2v85Int329CheckCastEPNS_4DataE",
            "__ZN2v818CompiledWasmModule9SerializeEv",
            "__ZN2v814ScriptCompiler20ConsumeCodeCacheTask23MergeWithExistingScriptEv",
            "__ZNK2v88TryCatch13HasTerminatedEv",
            "__ZN2v817ValueDeserializerD1Ev",
            "_napi_get_value_string_latin1",
            "__ZNK2v812BackingStore10ByteLengthEv",
            "__ZN2v814ObjectTemplate21SetInternalFieldCountEi",
            "_js_create_platform",
            "__ZN2v86RegExp21NewWithBacktrackLimitENS_5LocalINS_7ContextEEENS1_INS_6StringEEENS0_5FlagsEj",
            "__ZN2v814ScriptCompiler35StartConsumingCodeCacheOnBackgroundEPNS_7IsolateENSt4__Cr10unique_ptrINS0_10CachedDataENS3_14default_deleteIS5_EEEE",
            "__ZNK2v88Function26Experimental_IsNopFunctionEv",
            "_utf8_string_compare",
            "__ZN2v87Isolate36SetFailedAccessCheckCallbackFunctionEPFvNS_5LocalINS_6ObjectEEENS_10AccessTypeENS1_INS_5ValueEEEE",
            "_utf16_length_from_latin1",
            "_uv_stream_get_write_queue_size",
            "__ZN2v86String14NewFromTwoByteEPNS_7IsolateEPKtNS_13NewStringTypeEi",
            "__ZNK2v87Message21GetScriptResourceNameEv",
            "_uv_fs_fchown",
            "__ZN2v86Object14CallAsFunctionENS_5LocalINS_7ContextEEENS1_INS_5ValueEEEiPS5_",
            "__ZN2v812api_internal10EternalizeEPNS_7IsolateEPNS_5ValueE",
            "__ZN2v815ArrayBufferView12CopyContentsEPvm",
            "_js_delete_reference",
            "__ZNK2v86Object14IsUndetectableEv",
            "_uv_ip4_addr",
            "_utf8_string_erase",
            "__ZN2v86Number3NewEPNS_7IsolateEd",
            "_bare_on_resume",
            "__ZN2v82V813InitializeICUEPKc",
            "__ZN2v88internal20ValidateCallbackInfoIvEEbRKNS_20FunctionCallbackInfoIT_EE",
            "__ZN2v812HeapProfiler16TakeHeapSnapshotEPNS_15ActivityControlEPNS0_18ObjectNameResolverEbb",
            "_uv_interface_addresses",
            "_js_resolve_deferred",
            "_uv_os_setenv",
            "__ZN2v87Isolate13SetStackLimitEm",
            "__ZN2v813RegisterStateC2Ev",
            "__ZN2v816CodeEventHandlerD1Ev",
            "__ZN2v822SharedMemoryStatisticsC1Ev",
            "__ZN2v87Private3NewEPNS_7IsolateENS_5LocalINS_6StringEEE",
            "__ZN2v88internal32OptimizingCompileDispatcherQueue23DequeueIfIsolateMatchesEPNS0_7IsolateE",
            "_uv_open_osfhandle",
            "__ZN2v814ScriptCompiler15CreateCodeCacheENS_5LocalINS_19UnboundModuleScriptEEE",
            "__ZNK2v85Value6IsDateEv",
            "__ZN5cppgc8internal20PersistentRegionLockD1Ev",
            "__ZNK2v84Data18IsFunctionTemplateEv",
            "_latin1_length_from_utf32",
            "_uv_write2",
            "__ZNK2v812StringObject7ValueOfEv",
            "_uv_rwlock_rdlock",
            "_utf_is_le",
            "_bare_runtime_load",
            "__ZN2v88Template21SetNativeDataPropertyENS_5LocalINS_4NameEEEPFvS3_RKNS_20PropertyCallbackInfoINS_5ValueEEEEPFvS3_NS1_IS5_EERKNS4_IvEEESB_NS_17PropertyAttributeENS_14SideEffectTypeESI_",
            "__ZN2v811CpuProfiler5StartENS_5LocalINS_6StringEEENS_19CpuProfilingOptionsENSt4__Cr10unique_ptrINS_24DiscardedSamplesDelegateENS5_14default_deleteIS7_EEEE",
            "__ZNK2v818PropertyDescriptor3getEv",
            "__ZN2v82V810GetVersionEv",
            "__ZN2v89CodeEvent15GetFunctionNameEv",
            "__ZN2v815ValueSerializer7ReleaseEv",
            "_napi_throw_type_error",
            "_uv_rwlock_init",
            "__ZN2v88TryCatch13ResetInternalEv",
            "_ascii_validate",
            "__ZN2v89Exception9TypeErrorENS_5LocalINS_6StringEEENS1_INS_5ValueEEE",
            "_uv_fs_mkdtemp",
            "__ZN2v87Context23UseDefaultSecurityTokenEv",
            "__ZNK2v818PropertyDescriptor10enumerableEv",
            "__ZNK2v85Value9IsWeakRefEv",
            "_js_create_inspector",
            "_js_get_arraybuffer_info",
            "__ZN2v88internal8compiler23CompilationDependencies17DependOnProtectorENS1_15PropertyCellRefE",
            "_js_is_sharedarraybuffer",
            "_uv_library_shutdown",
            "__ZN2v814PrimitiveArray3NewEPNS_7IsolateEi",
            "_uv_fs_poll_stop",
            "_js_release_threadsafe_function",
            "_uv_get_available_memory",
            "__ZN2v818PropertyDescriptor16set_configurableEb",
            "_uv_fs_scandir",
            "_uv_random",
            "_uv_loop_alive",
            "__ZN2v87Isolate26InstallConditionalFeaturesENS_5LocalINS_7ContextEEE",
            "__ZNK2v86Module8ScriptIdEv",
            "__ZNK2v85Value8ToStringENS_5LocalINS_7ContextEEE",
            "__ZNK2v85Value12StrictEqualsENS_5LocalIS0_EE",
            "__ZN2v818EmbedderStateScopeD2Ev",
            "_uv_tty_reset_mode",
            "__ZN12v8_inspector14V8StackTraceIdC2EmNSt4__Cr4pairIxxEE",
            "__ZN2v84Name9CheckCastEPNS_4DataE",
            "__ZN2v88internal8compiler23CompilationDependencies26DependOnOwnConstantElementENS1_11JSObjectRefEjNS1_9ObjectRefE",
            "_bare_addon_teardown",
            "_utf8_string_view",
            "__ZN2v87Isolate32GetHeapCodeAndMetadataStatisticsEPNS_18HeapCodeStatisticsE",
            "__ZN2v814ScriptCompiler7CompileENS_5LocalINS_7ContextEEEPNS0_14StreamedSourceENS1_INS_6StringEEERKNS_12ScriptOriginE",
            "__ZN2v84JSON9StringifyENS_5LocalINS_7ContextEEENS1_INS_5ValueEEENS1_INS_6StringEEE",
            "__ZN2v89Exception14ReferenceErrorENS_5LocalINS_6StringEEENS1_INS_5ValueEEE",
            "_uv_thread_getaffinity",
            "_js_is_undefined",
            "__ZN2v87Isolate19SetBatterySaverModeEb",
            "_uv_fs_access",
            "__ZNK2v85Value14IsSymbolObjectEv",
            "__ZN2v87Context23GetDataFromSnapshotOnceEm",
            "__ZNK2v814CpuProfileNode9GetNodeIdEv",
            "__ZN2v811ArrayBuffer9Allocator19NewDefaultAllocatorEv",
            "__ZN2v812Float16Array9CheckCastEPNS_5ValueE",
            "__ZN2v816FunctionTemplate28SetPrototypeProviderTemplateENS_5LocalIS0_EE",
            "_js_get_arraybuffer_backing_store",
            "_napi_module_register",
            "_js_set_property",
            "__ZNK2v812BackingStore8IsSharedEv",
            "__ZN2v815MicrotasksScopeC2EPNS_7IsolateEPNS_14MicrotaskQueueENS0_4TypeE",
            "__ZN2v86RegExp4ExecENS_5LocalINS_7ContextEEENS1_INS_6StringEEE",
            "__ZN2v816CodeEventHandlerD0Ev",
            "_js_set_element",
            "_utf8_string_empty",
            "__ZNK2v811ArrayBuffer4DataEv",
            "__ZN2v82V828InitializeICUDefaultLocationEPKcS2_",
            "_js_throw_type_errorf",
            "__ZN2v87Isolate16ClearKeptObjectsEv",
            "_uv_unref",
            "__ZN2v87Context16GetSecurityTokenEv",
            "__ZNK2v810StackFrame11GetLocationEv",
            "__ZN2v89Exception11SyntaxErrorENS_5LocalINS_6StringEEENS1_INS_5ValueEEE",
            "_bare_run",
            "__ZN2v812Float16Array3NewENS_5LocalINS_11ArrayBufferEEEmm",
            "_uv_fs_fstat",
            "_bare_module_find",
            "_js_is_weak_set",
            "__ZN2v87Isolate12CreateParamsC1Ev",
            "_uv_thread_setpriority",
            "__ZN2v88internal15ThreadIsolation14MakeExecutableEmm",
            "__ZN2v811CpuProfiler5StartENS_5LocalINS_6StringEEENS_16CpuProfilingModeEbj",
            "_js_reject_deferred",
            "_uv_udp_init",
            "_js_get_value_date",
            "__ZNK2v810StackFrame17GetSourcePositionEv",
            "_js_throw_syntax_verrorf",
            "__ZN2v87CppHeap13GetHeapHandleEv",
            "__ZN2v87Boolean9CheckCastEPNS_4DataE",
            "__ZN2v87Isolate34SetAllowWasmCodeGenerationCallbackEPFbNS_5LocalINS_7ContextEEENS1_INS_6StringEEEE",
            "__ZN2v815SnapshotCreatorC1EPKlPKNS_11StartupDataE",
            "__ZN2v86Symbol21GetIsConcatSpreadableEPNS_7IsolateE",
            "__ZN2v82V815DisposePlatformEv",
            "_utf32_length_from_utf8",
            "__ZNK2v814PrimitiveArray6LengthEv",
            "__ZN2v87Context20BackupIncumbentScopeD2Ev",
            "__ZN2v819SharedValueConveyorD2Ev",
            "__ZN2v87Isolate19SetMicrotasksPolicyENS_16MicrotasksPolicyE",
            "__ZN2v87Isolate41SetHostInitializeImportMetaObjectCallbackEPFvNS_5LocalINS_7ContextEEENS1_INS_6ModuleEEENS1_INS_6ObjectEEEE",
            "__ZN2v87Isolate23GetArrayBufferAllocatorEv",
            "__ZN2v814ScriptCompiler20ConsumeCodeCacheTaskD1Ev",
            "__ZNK2v813HeapGraphEdge9GetToNodeEv",
            "_napi_set_instance_data",
            "_uv_udp_getpeername",
            "__ZNK2v88TryCatch9HasCaughtEv",
            "__ZN2v87Isolate12CreateParamsD2Ev",
            "_url_get_query",
            "_js_is_wrapped",
            "_uv_read_start",
            "_uv_mutex_init_recursive",
            "__ZN2v87Isolate12SetIsLoadingEb",
            "__ZN2v816WasmModuleObject17GetCompiledModuleEv",
            "_bare_thread_suspend",
            "__ZN2v85Proxy3NewENS_5LocalINS_7ContextEEENS1_INS_6ObjectEEES5_",
            "_hex_decode_utf8",
            "__ZNK2v85Value19IsGeneratorFunctionEv",
            "__ZNK2v86RegExp8GetFlagsEv",
            "__ZNK2v813BooleanObject7ValueOfEv",
            "_napi_get_value_string_utf16",
            "_uv_thread_getcpu",
            "_napi_close_callback_scope",
            "_js_create_symbol",
            "_napi_create_threadsafe_function",
            "__ZN5cppgc6subtle30DisallowGarbageCollectionScope5EnterERNS_10HeapHandleE",
            "__ZNK2v85Value6IsNameEv",
            "_napi_call_threadsafe_function",
            "_js_on_inspector_response",
            "__ZN2v87Isolate35SetReleaseCppHeapCallbackForTestingEPFvNSt4__Cr10unique_ptrINS_7CppHeapENS1_14default_deleteIS3_EEEEE",
            "__ZNK2v813ModuleRequest8GetPhaseEv",
            "_utf8_length_from_utf32",
            "__ZN2v87Isolate26SetCreateHistogramFunctionEPFPvPKciimE",
            "__ZN2v814BigUint64Array3NewENS_5LocalINS_11ArrayBufferEEEmm",
            "__ZN2v812HeapProfiler11GetObjectIdENS_5LocalINS_5ValueEEE",
            "_uv_timer_get_repeat",
            "_uv_loop_set_data",
            "_js_create_date",
            "_utf8_string_view_substring_copy",
            "__ZNK2v85Value8ToNumberENS_5LocalINS_7ContextEEE",
            "__ZN2v86Object50GetAlignedPointerFromEmbedderDataInCreationContextEPNS_7IsolateEi",
            "_uv_mutex_destroy",
            "__ZN2v86RegExp3NewENS_5LocalINS_7ContextEEENS1_INS_6StringEEENS0_5FlagsE",
            "_latin1_length_from_utf8",
            "_url_get_password",
            "__ZNK2v85Value8IsRegExpEv",
            "__ZN2v86Object16SetInternalFieldEiNS_5LocalINS_4DataEEE",
            "_js_get_boolean",
            "_uv_metrics_info",
            "__ZN2v815ValueSerializer8Delegate22ReallocateBufferMemoryEPvmPm",
            "_utf8_string_prepend_view",
            "__ZNK12v8_inspector12V8DebuggerId4pairEv",
            "_utf8_string_compare_literal",
            "_js_delete_named_property",
            "_uv_loop_get_data",
            "__ZN2v810Int32Array3NewENS_5LocalINS_11ArrayBufferEEEmm",
            "_js_get_platform_identifier",
            "_uv_close",
            "__ZNK2v85Value9IsBooleanEv",
            "_napi_set_named_property",
            "__ZN12v8_inspector8String1611fromUTF16LEEPKtm",
            "_utf8_convert_to_utf16le",
            "__ZN2v86Module24SetSyntheticModuleExportEPNS_7IsolateENS_5LocalINS_6StringEEENS3_INS_5ValueEEE",
            "_napi_has_element",
            "__ZN2v87Isolate19GetIncumbentContextEv",
            "_napi_typeof",
            "__ZN5cppgc8internal8AgeTable15ResetForTestingEv",
            "_uv_disable_stdio_inheritance",
            "_js_create_unsafe_sharedarraybuffer",
            "_uv_udp_try_send2",
            "_uv_tcp_connect",
            "__ZN2v88DataView9CheckCastEPNS_5ValueE",
            "_js_create_delegate",
            "_utf8_string_append_literal",
            "_uv_if_indextoname",
            "__ZNK2v85Value9IsWeakMapEv",
            "_napi_define_class",
            "_uv_thread_self",
            "_js_delete_property",
            "__ZN2v86Object28FindInstanceInPrototypeChainENS_5LocalINS_16FunctionTemplateEEE",
            "_uv_tty_init",
            "_uv_pipe_pending_count",
            "__ZN2v817ValueDeserializer12ReadRawBytesEmPPKv",
            "_js_create_sharedarraybuffer",
            "__ZNK2v812HeapSnapshot24GetMaxSnapshotJSObjectIdEv",
            "_napi_convert_to_status",
            "__ZN2v823ExternalMemoryAccounteraSEOS0_",
            "__ZNK2v88internal8compiler23CompilationDependencies41FieldRepresentationDependencyOffTheRecordENS1_6MapRefES3_NS0_13InternalIndexENS0_14RepresentationE",
            "__ZN2v818PropertyDescriptorC1ENS_5LocalINS_5ValueEEEb",
            "_napi_delete_property",
            "__ZN2v812HeapProfiler26SetGetDetachednessCallbackEPFNS_13EmbedderGraph4Node12DetachednessEPNS_7IsolateERKNS_5LocalINS_5ValueEEEtPvESB_",
            "__ZNK2v819TracedReferenceBase10CheckValueEv",
            "__ZNK2v88Function12GetDebugNameEv",
            "__ZNK2v86String5WriteEPNS_7IsolateEPtiii",
            "_js_destroy_env",
            "__ZN2v814HeapStatisticsC2Ev",
            "_uv_barrier_wait",
            "__ZNK2v85Value16IsBigUint64ArrayEv",
            "_js_is_map_iterator",
            "_uv_tcp_getsockname",
            "__ZN2v87CppHeap41CollectGarbageInYoungGenerationForTestingEN5cppgc18EmbedderStackStateE",
            "__ZN2v87Isolate11SetPriorityENS0_8PriorityE",
            "__ZN2v86Symbol9CheckCastEPNS_4DataE",
            "_js_throw_type_verrorf",
            "_uv_exepath",
            "_napi_queue_async_work",
            "__ZN2v86String12MakeExternalEPNS_7IsolateEPNS0_22ExternalStringResourceE",
            "_uv_thread_equal",
            "__ZN2v88internal8compiler23CompilationDependencies30DependOnArrayIteratorProtectorEv",
            "_js_get_null",
            "__ZN2v89Exception13WasmLinkErrorENS_5LocalINS_6StringEEENS1_INS_5ValueEEE",
            "__ZN2v810Int32Array3NewENS_5LocalINS_17SharedArrayBufferEEEmm",
            "__ZN2v88internal20ValidateCallbackInfoINS_7BooleanEEEbRKNS_20PropertyCallbackInfoIT_EE",
            "__ZN2v812SymbolObject9CheckCastEPNS_5ValueE",
            "__ZN2v815SnapshotCreatorC1ERKNS_7Isolate12CreateParamsE",
            "__ZNK2v86Object25HasNamedLookupInterceptorEv",
            "__ZNK2v85Value11FullIsFalseEv",
            "__ZN2v821MeasureMemoryDelegate7DefaultEPNS_7IsolateENS_5LocalINS_7ContextEEENS3_INS_7Promise8ResolverEEENS_17MeasureMemoryModeE",
            "__ZN2v86Object20SlowGetInternalFieldEi",
            "_uv_fs_lstat",
            "__ZN2v87Isolate12GetCodeRangeEPPvPm",
            "__ZN2v87Context15SetEmbedderDataEiNS_5LocalINS_5ValueEEE",
            "__ZNK2v88internal15ThreadIsolation16JitPageReference4SizeEv",
            "_uv_cond_destroy",
            "__ZN2v812api_internal17FromJustIsNothingEv",
            "__ZN2v813UnboundScript12GetSourceURLEv",
            "__ZN2v816WasmModuleObject18FromCompiledModuleEPNS_7IsolateERKNS_18CompiledWasmModuleE",
            "__ZN2v86Object17DefineOwnPropertyENS_5LocalINS_7ContextEEENS1_INS_4NameEEENS1_INS_5ValueEEENS_17PropertyAttributeE",
            "_js_remove_teardown_callback",
            "__ZNK2v812BackingStore27IsResizableByUserJavaScriptEv",
            "_uv_thread_getpriority",
            "__ZN2v811ArrayBuffer15GetBackingStoreEv",
            "_uv_tty_get_winsize",
            "__ZN2v814ScriptCompiler20ConsumeCodeCacheTaskC1ENSt4__Cr10unique_ptrINS_8internal25BackgroundDeserializeTaskENS2_14default_deleteIS5_EEEE",
            "_napi_create_typedarray",
            "_js_is_uint8clampedarray",
            "_uv_fileno",
            "_uv_udp_set_multicast_loop",
            "__ZNK2v85Array6LengthEv",
            "__ZN2v813WasmStreamingC1ENSt4__Cr10unique_ptrINS0_17WasmStreamingImplENS1_14default_deleteIS3_EEEE",
            "__ZN2v87Isolate14ThrowExceptionENS_5LocalINS_5ValueEEE",
            "__ZN12v8_inspector8String16C1EPKDs",
            "__ZN2v815SnapshotCreator10AddContextENS_5LocalINS_7ContextEEENS_31SerializeInternalFieldsCallbackENS_28SerializeContextDataCallbackENS_27SerializeAPIWrapperCallbackE",
            "__ZN2v89CodeEvent20GetCodeEventTypeNameENS_13CodeEventTypeE",
            "__ZN2v87Isolate8AllocateEv",
            "__ZN2v88TryCatchnwEm",
            "__ZN2v88internal15ThreadIsolation16JitPageReference16LookupAllocationEmmNS1_17JitAllocationTypeE",
            "_js_ref_threadsafe_function",
            "__ZNK2v818PropertyDescriptor5valueEv",
            "__ZNK2v85Value15IsBigInt64ArrayEv",
            "_bare_teardown",
            "__ZN2v88internal8compiler23CompilationDependencies29DependOnArraySpeciesProtectorEv",
            "__ZN2v87Isolate29DiscardThreadSpecificMetadataEv",
            "_uv_loop_configure",
            "_uv_fs_copyfile",
            "__ZN2v814ScriptCompiler10CachedData18CompatibilityCheckEPNS_7IsolateE",
            "__ZN2v817ValueDeserializer9ReadValueENS_5LocalINS_7ContextEEE",
            "_js_create_external_arraybuffer",
            "_uv_rwlock_tryrdlock",
            "__ZN2v812HeapProfiler25StartSamplingHeapProfilerEyiNS0_13SamplingFlagsE",
            "__ZN2v85Proxy9CheckCastEPNS_5ValueE",
            "_uv_handle_type_name",
            "__ZN2v87Isolate29AllowJavascriptExecutionScopeC1EPS0_",
            "__ZN2v88internal15ThreadIsolation16JitPageReference6ExpandEm",
            "__ZN2v87Context20BackupIncumbentScopeC2ENS_5LocalIS0_EE",
            "_js_adjust_external_memory",
            "__ZN2v86Object10HasPrivateENS_5LocalINS_7ContextEEENS1_INS_7PrivateEEE",
            "__ZN2v815ValueSerializer13WriteRawBytesEPKvm",
            "__ZN2v819SharedValueConveyorC2EPNS_7IsolateE",
            "_uv_prepare_start",
            "__ZNK2v88Function7GetNameEv",
            "_js_get_sharedarraybuffer_info",
            "_napi_get_element",
            "_uv_os_getpid",
            "_uv_handle_get_data",
            "_js_create_env",
            "__ZNK2v85Value14IsStringObjectEv",
            "__ZN2v812api_internal13DisposeGlobalEPm",
            "__ZN2v86Object14PreviewEntriesEPb",
            "_uv_fs_poll_init",
            "_uv_idle_stop",
            "__ZN2v86String17InternalizeStringEPNS_7IsolateE",
            "__ZN2v86Symbol14GetHasInstanceEPNS_7IsolateE",
            "__ZN2v88internal8compiler23CompilationDependencies6CommitENS0_6HandleINS0_4CodeEEE",
            "__ZN2v816WasmModuleObject9CheckCastEPNS_5ValueE",
            "__ZN2v86Object18CreateDataPropertyENS_5LocalINS_7ContextEEEjNS1_INS_5ValueEEE",
            "__ZN2v87Isolate27ContextDisposedNotificationEb",
            "__ZN2v823ExternalMemoryAccounterD2Ev",
            "_js_get_dataview_view",
            "_utf_endianness",
            "_js_remove_wrap",
            "__ZN2v814ObjectTemplate11NewInstanceENS_5LocalINS_7ContextEEE",
            "__ZNK2v810StackFrame6IsEvalEv",
            "_uv_metrics_idle_time",
            "_napi_add_async_cleanup_hook",
            "__ZN2v818PropertyDescriptorC2ENS_5LocalINS_5ValueEEE",
            "_utf8_string_replace_character",
            "_js_get_threadsafe_function_context",
            "__ZN2v87CppHeap17CollectStatisticsEN5cppgc14HeapStatistics11DetailLevelE",
            "_uv_poll_init_socket",
            "__ZNK5cppgc14LivenessBroker21IsHeapObjectAliveImplEPKv",
            "_js_run_module",
            "__ZN2v823ExternalMemoryAccounterC1EOS0_",
            "__ZN2v89Exception5ErrorENS_5LocalINS_6StringEEENS1_INS_5ValueEEE",
            "__ZN2v835TryToCopyAndConvertArrayToCppBufferILj458752EfEEbNS_5LocalINS_5ArrayEEEPT0_j",
            "__ZN2v87Isolate31GetHeapObjectStatisticsAtLastGCEPNS_20HeapObjectStatisticsEm",
            "_js_get_value_int32",
            "__ZN2v87Promise8Resolver10GetPromiseEv",
            "__ZN2v88internal8compiler23CompilationDependencies28DependOnPromiseThenProtectorEv",
            "__ZN2v818CompiledWasmModuleC1ENSt4__Cr10shared_ptrINS_8internal4wasm12NativeModuleEEEPKcm",
            "_js_has_element",
            "_js_throw_verrorf",
            "__ZN2v817SharedArrayBuffer15GetBackingStoreEv",
            "__ZN2v88internal8compiler23CompilationDependencies33DependOnTypedArrayLengthProtectorEv",
            "__ZN2v89Exception17CaptureStackTraceENS_5LocalINS_7ContextEEENS1_INS_6ObjectEEE",
            "__ZN2v814ScriptCompiler19ScriptStreamingTask3RunEv",
            "__ZN2v88Platform21SystemClockTimeMillisEv",
            "__ZN2v83Map9CheckCastEPNS_5ValueE",
            "__ZN2v87Context12DetachGlobalEv",
            "_js_is_uint32array",
            "__ZN5cppgc8internal11GCInfoTable6ResizeEv",
            "__ZN2v87Promise8Resolver9CheckCastEPNS_5ValueE",
            "__ZN2v86Object38SlowGetAlignedPointerFromInternalFieldEi",
            "_uv_key_set",
            "_uv_mutex_lock",
            "__ZN2v87Isolate29SetAddHistogramSampleFunctionEPFvPviE",
            "_uv_prepare_stop",
            "__ZNK2v87Message19IsSharedCrossOriginEv",
            "__ZNK12v8_inspector14V8StackTraceId9IsInvalidEv",
            "__ZNK2v85Value12IsUint8ArrayEv",
            "_napi_create_type_error",
            "__ZNK2v83Map4SizeEv",
            "__ZN2v86RegExp9CheckCastEPNS_5ValueE",
            "__ZNK2v86String7WriteV2EPNS_7IsolateEjjPti",
            "__ZNK2v88Function16GetBoundFunctionEv",
            "_js_create_string_utf8",
            "__ZN2v88internal8compiler23CompilationDependencies38DependOnNoUndetectableObjectsProtectorEv",
            "_uv_process_get_pid",
            "_utf8_string_shrink_to_fit",
            "_js_get_platform_version",
            "_uv_default_loop",
            "__ZN2v88internal15ThreadIsolation31RegisterJitAllocationForTestingEmm",
            "__ZNK2v810StackFrame15GetScriptSourceEv",
            "_uv_buf_init",
            "__ZN2v812IsolateGroupaSEOS0_",
            "_uv_ip6_addr",
            "__ZN2v88Template19SetLazyDataPropertyENS_5LocalINS_4NameEEEPFvS3_RKNS_20PropertyCallbackInfoINS_5ValueEEEENS1_IS5_EENS_17PropertyAttributeENS_14SideEffectTypeESD_",
            "_js_is_typedarray",
            "__ZN2v87Isolate42SetModifyCodeGenerationFromStringsCallbackEPFNS_37ModifyCodeGenerationFromStringsResultENS_5LocalINS_7ContextEEENS2_INS_5ValueEEEbE",
            "__ZNK2v812HeapSnapshot7GetRootEv",
            "__ZN5cppgc8internal12WriteBarrier31DijkstraMarkingBarrierRangeSlowERNS_10HeapHandleEPKvmmPFvPNS_7VisitorES5_E",
            "__ZN2v86Object3NewEPNS_7IsolateE",
            "__ZN2v89ExtensionC2EPKcS2_iPS2_i",
            "_napi_remove_async_cleanup_hook",
            "_napi_convert_from_threadsafe_function_release_mode",
            "_uv_udp_set_multicast_interface",
            "_uv_fs_stat",
            "__ZN2v87Context15SetPromiseHooksENS_5LocalINS_8FunctionEEES3_S3_S3_",
            "__ZN2v88internal10TickSample14GetStackSampleEPNS0_7IsolateEPNS_13RegisterStateENS1_17RecordCEntryFrameEPPvmPNS_10SampleInfoEPNS_8StateTagEb",
            "__ZN4heap4base23SuspendTagCheckingScopeD1Ev",
            "__ZN2v87Isolate13AttachCppHeapEPNS_7CppHeapE",
            "__ZNK2v87Message12GetEndColumnENS_5LocalINS_7ContextEEE",
            "__ZN2v88internal15ThreadIsolation13LookupJitPageEmm",
            "__ZNK2v88Function8ScriptIdEv",
            "_napi_async_destroy",
            "_utf32_length_from_utf16le",
            "__ZN5cppgc8internal12WriteBarrier41SteeleMarkingBarrierSlowWithSentinelCheckEPKv",
            "__ZN2v816CodeEventHandlerD2Ev",
            "__ZN2v814ObjectTemplate17SetImmutableProtoEv",
            "__ZN2v824EscapableHandleScopeBaseC1EPNS_7IsolateE",
            "__ZN2v87Isolate24AddCallCompletedCallbackEPFvPS0_E",
            "__ZN2v88internal15ThreadIsolation16TryLookupJitPageEmm",
            "__ZN2v88internal8compiler23CompilationDependencies33DependOnScriptContextSlotPropertyENS1_10ContextRefEmNS0_23ContextSidePropertyCell8PropertyEPNS1_12JSHeapBrokerE",
            "_uv_udp_connect",
            "__ZNK2v812HeapSnapshot7GetNodeEi",
            "__ZN2v814ScriptCompiler10CachedDataD1Ev",
            "_uv_fs_lchown",
            "__ZN5cppgc6subtle30DisallowGarbageCollectionScopeC2ERNS_10HeapHandleE",
            "__ZN2v87Isolate18GetStackTraceLimitEv",
            "__ZN2v87Isolate32DisallowJavascriptExecutionScopeC2EPS0_NS1_9OnFailureE",
            "__ZN2v88internal10HeapLayout34InYoungGenerationForStickyMarkbitsEPKNS0_11MemoryChunkENS0_6TaggedINS0_10HeapObjectEEE",
            "__ZN2v88internal8compiler23CompilationDependencies18DependOnInitialMapENS1_13JSFunctionRefE",
            "__ZN2v810Uint8Array3NewENS_5LocalINS_11ArrayBufferEEEmm",
            "_js_create_arraybuffer",
            "_log_vdebug",
            "__ZN2v88internal19CopyTracedReferenceEPKPKmPPm",
            "__ZN2v87Isolate18AddMessageListenerEPFvNS_5LocalINS_7MessageEEENS1_INS_5ValueEEEES5_",
            "__ZN2v814ScriptCompiler20ConsumeCodeCacheTask19SourceTextAvailableEPNS_7IsolateENS_5LocalINS_6StringEEERKNS_12ScriptOriginE",
            "__ZN2v818PropertyDescriptorC2ENS_5LocalINS_5ValueEEEb",
            "__ZNK2v86Object12IsApiWrapperEv",
            "__ZN2v817RegisterExtensionENSt4__Cr10unique_ptrINS_9ExtensionENS0_14default_deleteIS2_EEEE",
            "__ZN2v819CpuProfilingOptionsC1ENS_16CpuProfilingModeEjiNS_10MaybeLocalINS_7ContextEEE",
            "__ZNK2v814CpuProfileNode24GetScriptResourceNameStrEv",
            "_utf8_string_prepend_character",
            "__ZN2v83Set6DeleteENS_5LocalINS_7ContextEEENS1_INS_5ValueEEE",
            "__ZN2v86Object14SetPrototypeV2ENS_5LocalINS_7ContextEEENS1_INS_5ValueEEE",
            "_uv_print_active_handles",
            "_base64_encode_utf8",
            "_bare_module_register",
            "_uv_ref",
            "__ZN2v87Context20BackupIncumbentScopeC1ENS_5LocalIS0_EE",
            "__ZN2v88internal15ThreadIsolation31CanLookupStartOfJitAllocationAtEm",
            "_js_is_bigint64array",
            "_uv_barrier_destroy",
            "__ZN2v82V829InitializeExternalStartupDataEPKc",
            "__ZN2v817ValueDeserializer10ReadUint32EPj",
            "__ZN2v819SharedValueConveyorC1EPNS_7IsolateE",
            "__ZN2v88internal8compiler23CompilationDependencies29DependOnStablePrototypeChainsERKNS0_10ZoneVectorINS1_6MapRefEEENS0_12WhereToStartENS1_11OptionalRefINS1_11JSObjectRefEEE",
            "__ZN2v815MicrotasksScopeC1ENS_5LocalINS_7ContextEEENS0_4TypeE",
            "__ZN2v811CpuProfiler14StartProfilingENS_5LocalINS_6StringEEENS_16CpuProfilingModeEbj",
            "__ZN2v89CodeEvent15GetScriptColumnEv",
            "__ZNK2v814ObjectTemplate16IsImmutableProtoEv",
            "__ZN2v87Isolate13MeasureMemoryENSt4__Cr10unique_ptrINS_21MeasureMemoryDelegateENS1_14default_deleteIS3_EEEENS_22MeasureMemoryExecutionE",
            "_uv_udp_recv_start",
            "__ZN2v814ScriptCompiler10CachedDataC2EPKhiNS1_12BufferPolicyE",
            "__ZNK2v817SharedArrayBuffer13MaxByteLengthEv",
            "_napi_fatal_error",
            "__ZNK2v84Date11ToISOStringEv",
            "__ZN2v87Isolate31SuppressMicrotaskExecutionScopeD1Ev",
            "__ZNK2v812SymbolObject7ValueOfEv",
            "__ZNK2v810CpuProfile10GetEndTimeEv",
            "_js_get_value_bool",
            "__ZN2v87Isolate23SetEmbedderRootsHandlerEPNS_20EmbedderRootsHandlerE",
            "_uv_rwlock_rdunlock",
            "_uv_fs_poll_start",
            "_bare_on_before_exit",
            "__ZN2v87Context23SetAbortScriptExecutionEPFvPNS_7IsolateENS_5LocalIS0_EEE",
            "_js_get_value_int64",
            "_uv_once",
            "_napi_delete_async_work",
            "_napi_get_value_bigint_uint64",
            "__ZN2v86Object3HasENS_5LocalINS_7ContextEEEj",
            "__ZN2v88internal15ThreadIsolation22StartOfJitAllocationAtEm",
            "__ZN2v812Float16Array3NewENS_5LocalINS_17SharedArrayBufferEEEmm",
            "__ZN2v86String22ExternalStringResource15UpdateDataCacheEv",
            "__ZN2v86Symbol16GetAsyncIteratorEPNS_7IsolateE",
            "__ZN5cppgc8internal20PersistentRegionBaseD2Ev",
            "_js_get_callback_info",
            "_uv_pipe_bind2",
            "__ZNK2v86RegExp9GetSourceEv",
            "__ZN2v86Script3RunENS_5LocalINS_7ContextEEE",
            "_uv_signal_start",
            "__ZNK2v810CpuProfile8GetTitleEv",
            "_utf8_string_view_substring",
            "__ZN2v88internal8compiler23CompilationDependencies42DependOnConstantInDictionaryPrototypeChainENS1_6MapRefENS1_7NameRefENS1_9ObjectRefENS0_12PropertyKindE",
            "__ZN2v817ValueDeserializer8Delegate19GetWasmModuleFromIdEPNS_7IsolateEj",
            "_js_get_value_string_latin1",
            "__ZN2v86Number9CheckCastEPNS_4DataE",
            "__ZN2v816CodeEventHandler7DisableEv",
            "__ZN2v87Context10GetIsolateEv",
            "_uv_rwlock_wrlock",
            "_js_get_prototype",
            "__ZN2v86Object3HasENS_5LocalINS_7ContextEEENS1_INS_5ValueEEE",
            "__ZN2v88internal24GlobalizeTracedReferenceEPNS0_7IsolateEmPmNS0_24TracedReferenceStoreModeENS0_23TracedReferenceHandlingE",
            "__ZN2v817SharedArrayBuffer15NewBackingStoreEPNS_7IsolateEmNS_30BackingStoreInitializationModeENS_25BackingStoreOnFailureModeE",
            "_utf8_string_destroy",
            "__ZN2v88internal15ThreadIsolation16JitPageReferenceC2EPNS1_7JitPageEm",
            "__ZN4heap4base23SuspendTagCheckingScopeC1Ev",
            "_napi_convert_to_threadsafe_function_call_mode",
            "__ZN2v86Module18GetModuleNamespaceEv",
            "__ZNK2v85Value8IsNumberEv",
            "__ZN2v86Object15GetIdentityHashEv",
            "_uv_idle_init",
            "__ZN2v815SnapshotCreator7AddDataENS_5LocalINS_7ContextEEEm",
            "_js_create_double",
            "__ZN2v87Isolate39SetHostCreateShadowRealmContextCallbackEPFNS_10MaybeLocalINS_7ContextEEENS_5LocalIS2_EEE",
            "__ZNK2v86BigInt11Uint64ValueEPb",
            "_utf8_string_copy",
            "__ZN2v87Isolate13TryGetCurrentEv",
            "_uv_accept",
            "_utf8_convert_to_latin1",
            "__ZN2v86Module31GetStalledTopLevelAwaitMessagesEPNS_7IsolateE",
            "__ZN2v86Object10GetPrivateENS_5LocalINS_7ContextEEENS1_INS_7PrivateEEE",
            "__ZN2v814ScriptCompiler7CompileENS_5LocalINS_7ContextEEEPNS0_6SourceENS0_14CompileOptionsENS0_13NoCacheReasonE",
            "__ZN2v813BigInt64Array3NewENS_5LocalINS_11ArrayBufferEEEmm",
            "__ZN2v814BigUint64Array9CheckCastEPNS_5ValueE",
            "_utf8_validate",
            "_uv_fs_fsync",
            "__ZN2v89CodeEvent11GetCodeSizeEv",
            "_uv_mutex_trylock",
            "__ZN5cppgc8internal20PersistentRegionLockC1Ev",
            "__ZNK2v821CompileHintsCollector15GetCompileHintsEPNS_7IsolateE",
            "__ZN2v87Isolate7SetIdleEb",
            "__ZNK2v85Value14IsBigIntObjectEv",
            "__ZN2v88internal10TickSample4InitEPNS0_7IsolateERKNS_13RegisterStateENS1_17RecordCEntryFrameEbbNS_4base9TimeDeltaENSt4__Cr8optionalIyEE",
            "_uv_kill",
            "_url_get_fragment",
            "__ZN2v86Object18GetCreationContextEv",
            "__ZN2v814ScriptCompiler13CompileModuleEPNS_7IsolateEPNS0_6SourceENS0_14CompileOptionsENS0_13NoCacheReasonE",
            "__ZN2v818PropertyDescriptorD2Ev",
            "__ZN2v87Isolate4ExitEv",
            "__ZN5cppgc8internal12WriteBarrier42GenerationalBarrierForUncompressedSlotSlowERKNS0_18CagedHeapLocalDataERKNS0_8AgeTableEPKvmPNS_10HeapHandleE",
            "__ZNK2v814CpuProfileNode12GetLineTicksEPNS0_8LineTickEj",
            "_utf16le_validate",
            "__ZN5cppgc8internal5FatalERKNSt4__Cr12basic_stringIcNS1_11char_traitsIcEENS1_9allocatorIcEEEERKN2v814SourceLocationE",
            "__ZN2v816WasmMemoryObject6BufferEv",
            "__ZN2v86Script16GetUnboundScriptEv",
            "__ZN2v88internal15ThreadIsolation22RegisterJitAllocationsEmRKNSt4__Cr6vectorImNS2_9allocatorImEEEENS1_17JitAllocationTypeE",
            "_url_get_host",
            "_uv_os_environ",
            "__ZN12v8_inspector8protocol7Runtime3API12StackTraceId10fromBinaryEPKhm",
            "__ZNK2v813HeapGraphNode14GetShallowSizeEv",
            "__ZNK2v88Function22GetScriptStartPositionEv",
            "_uv_resident_set_memory",
            "_uv_fs_req_cleanup",
            "__ZN2v86Script3RunENS_5LocalINS_7ContextEEENS1_INS_4DataEEE",
            "__ZN2v814ScriptOrModule18HostDefinedOptionsEv",
            "_js_send_inspector_request",
            "_js_is_error",
            "__ZN2v812BigIntObject9CheckCastEPNS_5ValueE",
            "__ZN2v87Isolate18TerminateExecutionEv",
            "__ZN2v86Object4WrapEPNS_7IsolateEmNS_17CppHeapPointerTagEPv",
            "_js_create_property_key_latin1",
            "__ZN2v813RegisterStateC1Ev",
            "__ZN2v819SharedValueConveyorC1EOS0_",
            "_js_create_string_utf16le",
            "__ZN2v89Int8Array3NewENS_5LocalINS_17SharedArrayBufferEEEmm",
            "_js_on_inspector_paused",
            "_uv_udp_set_source_membership",
            "__ZNK2v88TryCatch9ExceptionEv",
            "_utf32_convert_to_utf8",
            "__ZN5cppgc8internal12WriteBarrier24SteeleMarkingBarrierSlowEPKv",
            "__ZN2v86String6ConcatEPNS_7IsolateENS_5LocalIS0_EES4_",
            "_js_get_value_string_utf16le",
            "__ZN2v86String9ValueViewD1Ev",
            "_js_enter_context",
            "_utf8_string_insert_character",
            "__ZNK2v87Isolate8GetGroupEv",
            "_js_open_escapable_handle_scope",
            "_js_create_module",
            "__ZN2v817SharedArrayBuffer8MaybeNewEPNS_7IsolateEmNS_30BackingStoreInitializationModeE",
            "__ZN2v814ScriptCompiler10CachedDataD2Ev",
            "__ZN2v87Isolate31RemoveBeforeCallEnteredCallbackEPFvPS0_E",
            "_url_get_username",
            "__ZNK2v813HeapGraphNode7GetTypeEv",
            "_utf8_string_prepend",
            "__ZN2v86Module22GetUnboundModuleScriptEv",
            "__ZN2v814PrimitiveArray9CheckCastEPNS_4DataE",
            "__ZN2v87Isolate31IsolateInBackgroundNotificationEv",
            "_uv_udp_recv_stop",
            "__ZN2v88internal8compiler23CompilationDependencies25DependOnPrototypePropertyENS1_13JSFunctionRefE",
            "__ZN4heap4base23SuspendTagCheckingScopeD2Ev",
            "__ZN2v811Uint16Array9CheckCastEPNS_5ValueE",
            "__ZN2v87Context20BackupIncumbentScopeD1Ev",
            "__ZN2v87Promise12MarkAsSilentEv",
            "__ZN2v812HeapProfiler12GetHeapStatsEPNS_12OutputStreamEPx",
            "__ZN2v811HandleScopeD1Ev",
            "__ZN2v815SealHandleScopeD1Ev",
            "__ZN2v813UnboundScript15GetColumnNumberEi",
            "__ZNK2v85Value8ToBigIntENS_5LocalINS_7ContextEEE",
            "_napi_wrap",
            "__ZNK2v86String32GetExternalOneByteStringResourceEv",
            "_uv_now",
            "__ZN2v816FunctionTemplate11GetFunctionENS_5LocalINS_7ContextEEE",
            "__ZN2v87Isolate22RemoveMessageListenersEPFvNS_5LocalINS_7MessageEEENS1_INS_5ValueEEEE",
            "__ZN2v823ExternalMemoryAccounterD1Ev",
            "__ZN2v87Context24HasTemplateLiteralObjectENS_5LocalINS_5ValueEEE",
            "__ZNK2v87Context34IsCodeGenerationFromStringsAllowedEv",
            "__ZN2v815ValueSerializer8Delegate24AdoptSharedValueConveyorEPNS_7IsolateEONS_19SharedValueConveyorE",
            "__ZN2v88Template10SetPrivateENS_5LocalINS_7PrivateEEENS1_INS_4DataEEENS_17PropertyAttributeE",
            "_js_throw_syntax_errorf",
            "_uv_fs_realpath",
            "_uv_err_name",
            "_js_has_property",
            "_uv_fs_ftruncate",
            "_js_coerce_to_object",
            "__ZN2v816TypecheckWitness6UpdateENS_5LocalINS_5ValueEEE",
            "__ZN2v86Object9CheckCastEPNS_5ValueE",
            "__ZN2v823WasmMemoryMapDescriptor9CheckCastEPNS_5ValueE",
            "_napi_make_callback",
            "_napi_create_external_arraybuffer",
            "__ZN2v810Int16Array9CheckCastEPNS_5ValueE",
            "__ZN2v815SnapshotCreator10GetIsolateEv",
            "_js_run_script",
            "_uv_cpu_info",
            "_napi_coerce_to_number",
            "__ZN2v86Object3GetENS_5LocalINS_7ContextEEEj",
            "__ZN2v88TryCatchnaEm",
            "_uv_udp_init_ex",
            "__ZN2v89CodeEvent19GetCodeStartAddressEv",
            "__ZNK2v87Message9GetSourceENS_5LocalINS_7ContextEEE",
            "__ZN2v88internal8compiler23CompilationDependencies22DependOnGlobalPropertyENS1_15PropertyCellRefE",
            "__ZNK2v85Value12IsTypedArrayEv",
            "_uv_timer_get_due_in",
            "__ZN2v88DataView3NewENS_5LocalINS_11ArrayBufferEEEmm",
            "__ZN2v812api_internal18GlobalizeReferenceEPNS_8internal7IsolateEm",
            "_js_release_arraybuffer_backing_store",
            "__ZNK2v85Value11NumberValueENS_5LocalINS_7ContextEEE",
            "__ZN2v82V823SetFlagsFromCommandLineEPiPPcb",
            "__ZN2v85Array9CheckCastEPNS_5ValueE",
            "_js_is_delegate",
            "_js_strict_equals",
            "_uv_fs_event_stop",
            "__ZNK2v87Isolate9IsCurrentEv",
            "__ZN2v87Isolate26PerformMicrotaskCheckpointEv",
            "_napi_delete_reference",
            "_utf16_length_from_utf8",
            "_uv_loop_close",
            "__ZN2v817ValueDeserializerC1EPNS_7IsolateEPKhmPNS0_8DelegateE",
            "__ZNK2v818PropertyDescriptor7has_setEv",
            "_uv_tcp_init_ex",
            "_napi_get_value_external",
            "_uv_async_init",
            "__ZN2v89CodeEvent27GetPreviousCodeStartAddressEv",
            "__ZNK2v810FixedArray6LengthEv",
            "_uv_loop_fork",
            "__ZN2v87Isolate8AllocateERKNS_12IsolateGroupE",
            "__ZN2v812BigIntObject3NewEPNS_7IsolateEx",
            "_utf8_string_view_concat_literal",
            "__ZN2v816FunctionTemplate12NewWithCacheEPNS_7IsolateEPFvRKNS_20FunctionCallbackInfoINS_5ValueEEEENS_5LocalINS_7PrivateEEENSA_IS4_EENSA_INS_9SignatureEEEiNS_14SideEffectTypeE",
            "__ZNK2v813HeapGraphEdge11GetFromNodeEv",
            "_napi_check_object_type_tag",
            "_js_get_and_clear_last_exception",
            "_uv_os_getpriority",
            "_js_is_float64array",
            "_uv_check_start",
            "_js_exit_context",
            "__ZN2v813BigInt64Array3NewENS_5LocalINS_17SharedArrayBufferEEEmm",
            "__ZNK2v86String6LengthEv",
            "__ZN2v813BooleanObject9CheckCastEPNS_5ValueE",
            "__ZN2v811HandleScope12CreateHandleEPNS_8internal7IsolateEm",
            "_uv_tcp_open",
            "_js_create_int32",
            "__ZN2v87Isolate17GetCurrentContextEv",
            "__ZNK2v85Value15IsAsyncFunctionEv",
            "_uv_sem_trywait",
            "_js_get_value_uint32",
            "_uv_timer_set_repeat",
            "_bare_runtime_setup",
            "__ZN2v86Object3SetENS_5LocalINS_7ContextEEENS1_INS_5ValueEEES5_",
            "__ZNK12v8_inspector8String164utf8Ev",
            "_js_throw_errorf",
            "_uv_fs_get_ptr",
            "__ZNK2v85Value8ToObjectENS_5LocalINS_7ContextEEE",
            "_napi_create_int64",
            "_utf8_string_substring_copy",
            "__ZN2v815MicrotasksScope19IsRunningMicrotasksEPNS_7IsolateE",
            "__ZNK2v818PropertyDescriptor7has_getEv",
            "_napi_create_external",
            "__ZNK2v86Number5ValueEv",
            "__ZN2v818PropertyDescriptorC1ENS_5LocalINS_5ValueEEES3_",
            "__ZN2v812HeapProfiler15GetHeapSnapshotEi",
            "__ZN2v87Isolate36GetContinuationPreservedEmbedderDataEv",
            "__ZN2v87Isolate3NewERKNS0_12CreateParamsE",
            "__ZN2v86String14NewFromOneByteEPNS_7IsolateEPKhNS_13NewStringTypeEi",
            "_uv_thread_detach",
            "__ZN2v818CompiledWasmModuleC2ENSt4__Cr10shared_ptrINS_8internal4wasm12NativeModuleEEEPKcm",
            "__ZN2v817SharedArrayBuffer15NewBackingStoreEPvmPFvS1_mS1_ES1_",
            "__ZN2v88internal15ThreadIsolation7JitPageD2Ev",
            "_js_get_heap_statistics",
            "__ZN2v87Isolate24RemoveGCPrologueCallbackEPFvPS0_NS_6GCTypeENS_15GCCallbackFlagsEPvES4_",
            "__ZN2v88internal8compiler23CompilationDependencies16RecordDependencyEPKNS1_21CompilationDependencyE",
            "_uv_fs_event_start",
            "__ZNK2v814ObjectTemplate18InternalFieldCountEv",
            "__ZN2v86Object12GetPrototypeEv",
            "_js_create_dataview",
            "__ZN2v817ValueDeserializer27SetSupportsLegacyWireFormatEb",
            "__ZN2v815MicrotasksScope17PerformCheckpointEPNS_7IsolateE",
            "_uv_translate_sys_error",
            "__ZN2v88TryCatch10StackTraceENS_5LocalINS_7ContextEEENS1_INS_5ValueEEE",
            "__ZN2v813WasmStreaming22SetCompiledModuleBytesEPKhm",
            "_js_is_proxy",
            "_js_is_uint16array",
            "__ZN2v816FunctionTemplate12SetClassNameENS_5LocalINS_6StringEEE",
            "__ZN2v816FunctionTemplate7InheritENS_5LocalIS0_EE",
            "_url_parse",
            "_js_destroy_context",
            "__ZN2v812Float64Array3NewENS_5LocalINS_11ArrayBufferEEEmm",
            "_uv_socketpair",
            "__ZNK2v85Value13IsUint32ArrayEv",
            "_napi_type_tag_object",
            "_uv_read_stop",
            "__ZN2v88internal8compiler23CompilationDependencies40DependOnInitialMapInstanceSizePredictionENS1_13JSFunctionRefE",
            "__ZN2v813RegisterStateD1Ev",
            "__ZN2v87Isolate19SetAllowAtomicsWaitEb",
            "__ZN2v87Isolate28AddBeforeCallEnteredCallbackEPFvPS0_E",
            "_uv_cpumask_size",
            "_utf8_string_prepend_literal",
            "__ZN2v86Object10SetPrivateENS_5LocalINS_7ContextEEENS1_INS_7PrivateEEENS1_INS_5ValueEEE",
            "__ZN2v86Object12SetPrototypeENS_5LocalINS_7ContextEEENS1_INS_5ValueEEE",
            "_uv_getrusage",
            "__ZN2v811ArrayBuffer24NewResizableBackingStoreEmm",
            "_napi_get_value_string_utf8",
            "__ZN5cppgc8Platform20GetTracingControllerEv",
            "__ZN2v811ArrayBuffer8MaybeNewEPNS_7IsolateEmNS_30BackingStoreInitializationModeE",
            "__ZN2v86String9ValueViewC2EPNS_7IsolateENS_5LocalIS0_EE",
            "__ZNK2v88internal8compiler23CompilationDependencies26CompilationDependencyEqualclEPKNS1_21CompilationDependencyES6_",
            "_napi_remove_env_cleanup_hook",
            "_napi_close_escapable_handle_scope",
            "_uv_sem_destroy",
            "__ZNK2v85Value10Int32ValueENS_5LocalINS_7ContextEEE",
            "_bare_on_idle",
            "_uv_thread_getname",
            "__ZNK2v817SharedArrayBuffer4DataEv",
            "__ZN2v87CppHeap9TerminateEv",
            "__ZNK2v84Date7ValueOfEv",
            "_js_call_threadsafe_function",
            "__ZN2v818CompiledWasmModule15GetWireBytesRefEv",
            "__ZN2v87Isolate21ClearCachesForTestingEv",
            "_utf32_convert_to_latin1",
            "_uv_os_setpriority",
            "_js_delete_element",
            "__ZNK2v85Value12ToArrayIndexENS_5LocalINS_7ContextEEE",
            "_js_get_new_target",
            "__ZNK2v85Value8IsObjectEv",
            "__ZN2v88internal8compiler23CompilationDependencies31DependOnOwnConstantDataPropertyENS1_11JSObjectRefENS1_6MapRefENS0_10FieldIndexENS1_9ObjectRefE",
            "__ZN2v814ScriptCompiler20ConsumeCodeCacheTaskC2ENSt4__Cr10unique_ptrINS_8internal25BackgroundDeserializeTaskENS2_14default_deleteIS5_EEEE",
            "_utf8_string_view_compare_literal",
            "__ZN2v87Context5EnterEv",
            "__ZN2v87Isolate22SetAtomicsWaitCallbackEPFvNS0_16AtomicsWaitEventENS_5LocalINS_17SharedArrayBufferEEEmxdPNS0_21AtomicsWaitWakeHandleEPvES7_",
            "__ZNK2v85Value8IsSymbolEv",
            "__ZNK2v85Value17IsArgumentsObjectEv",
            "__ZN2v86Object50GetAlignedPointerFromEmbedderDataInCreationContextEi",
            "__ZN2v87metrics8Recorder10GetContextEPNS_7IsolateENS1_9ContextIdE",
            "_uv_udp_set_ttl",
            "__ZNK2v86Module15GetIdentityHashEv",
            "_uv_udp_send",
            "__ZNK2v814CpuProfileNode16GetChildrenCountEv",
            "_js_is_symbol",
            "__ZN2v89Exception16WasmRuntimeErrorENS_5LocalINS_6StringEEENS1_INS_5ValueEEE",
            "_uv_get_osfhandle",
            "_utf8_string_append_character",
            "__ZN2v86Object32SetAlignedPointerInInternalFieldEiPv",
            "__ZN2v86Object19SetLazyDataPropertyENS_5LocalINS_7ContextEEENS1_INS_4NameEEEPFvS5_RKNS_20PropertyCallbackInfoINS_5ValueEEEENS1_IS7_EENS_17PropertyAttributeENS_14SideEffectTypeESF_",
            "_uv_udp_bind",
            "__ZNK2v87Message14GetStartColumnENS_5LocalINS_7ContextEEE",
            "_utf16le_convert_to_utf8",
            "__ZN2v813RegisterStateD2Ev",
            "__ZN2v813UnboundScript13GetLineNumberEi",
            "__ZN2v87Context4ExitEv",
            "__ZNK2v812ScriptOrigin24VerifyHostDefinedOptionsEv",
            "__ZN2v86Symbol8GetMatchEPNS_7IsolateE",
            "__ZN2v823ExternalMemoryAccounter6UpdateEPNS_7IsolateEx",
            "_log_open",
            "__ZN2v87Isolate23SetWasmInstanceCallbackEPFbRKNS_20FunctionCallbackInfoINS_5ValueEEEE",
            "__ZN2v87Isolate41AdjustAmountOfExternalAllocatedMemoryImplEx",
            "__ZNK2v85Value10FullIsNullEv",
            "_js_is_float32array",
            "__ZN2v88internal15ThreadIsolation7EnabledEv",
            "__ZN2v88internal8compiler23CompilationDependencies41DependOnStringWrapperToPrimitiveProtectorEv",
            "__ZNK2v813HeapGraphEdge7GetNameEv",
            "__ZN2v812api_internal19CopyGlobalReferenceEPm",
            "__ZN2v816FunctionTemplate3NewEPNS_7IsolateEPFvRKNS_20FunctionCallbackInfoINS_5ValueEEEENS_5LocalIS4_EENSA_INS_9SignatureEEEiNS_19ConstructorBehaviorENS_14SideEffectTypeEPKNS_9CFunctionEttt",
            "__ZNK2v85Value6EqualsENS_5LocalINS_7ContextEEENS1_IS0_EE",
            "__ZNK2v85Value9SameValueENS_5LocalIS0_EE",
            "_uv_cond_init",
            "_napi_create_bigint_int64",
            "_url_get_port",
            "__ZN2v811CpuProfiler5StartENS_5LocalINS_6StringEEEb",
            "__ZN2v87Promise5CatchENS_5LocalINS_7ContextEEENS1_INS_8FunctionEEE",
            "_bare_addon_unload",
            "__ZN2v88internal23StrongRootAllocatorBaseC2EPNS0_7IsolateE",
            "__ZNK2v814CpuProfileNode21GetScriptResourceNameEv",
            "__ZN2v83Set5ClearEv",
            "__ZN2v88internal15ThreadIsolation21LookupWritableJitPageEmm",
            "__ZN2v811CpuProfiler38UseDetailedSourcePositionsForProfilingEPNS_7IsolateE",
            "__ZN2v88internal8compiler23CompilationDependenciesC1EPNS1_12JSHeapBrokerEPNS0_4ZoneE",
            "__ZNK2v87Message20GetWasmFunctionIndexEv",
            "__ZNK2v810StackFrame11GetScriptIdEv",
            "__ZN2v86Uint329CheckCastEPNS_4DataE",
            "_js_throw_range_error",
            "__ZN2v813ModuleRequest9CheckCastEPNS_4DataE",
            "_js_create_promise",
            "_js_get_typedarray_info",
            "__ZNK2v85Value11Uint32ValueENS_5LocalINS_7ContextEEE",
            "_js_throw_syntax_error",
            "_uv_process_kill",
            "_js_is_int32array",
            "__ZN2v87Isolate36SetContinuationPreservedEmbedderDataENS_5LocalINS_5ValueEEE",
            "__ZN5cppgc6subtle24NoGarbageCollectionScopeD1Ev",
            "_js_is_string",
            "__ZN2v83Set9CheckCastEPNS_5ValueE",
            "__ZN2v812HeapProfiler29AddBuildEmbedderGraphCallbackEPFvPNS_7IsolateEPNS_13EmbedderGraphEPvES5_",
            "__ZN2v86Object17CallAsConstructorENS_5LocalINS_7ContextEEEiPNS1_INS_5ValueEEE",
            "__ZN2v88internal22VerifyHandleIsNonEmptyEb",
            "_js_reference_ref",
            "__ZN2v824EscapableHandleScopeBaseC2EPNS_7IsolateE",
            "__ZN5cppgc6subtle24NoGarbageCollectionScopeD2Ev",
            "_js_is_date",
            "__ZN2v88internal15ThreadIsolation7JitPageD1Ev",
            "__ZN2v815SealHandleScopeD2Ev",
            "__ZN5cppgc8internal20PersistentRegionBase14RefillFreeListEv",
            "__ZNK2v85Value8ToUint32ENS_5LocalINS_7ContextEEE",
            "_utf_swap_uint32",
            "__ZN5cppgc8internal27CrossThreadPersistentRegionC2ERKNS0_23FatalOutOfMemoryHandlerE",
            "__ZN2v87Isolate10InitializeEPS0_RKNS0_12CreateParamsE",
            "__ZNK2v88internal8compiler23CompilationDependencies25CompilationDependencyHashclEPKNS1_21CompilationDependencyE",
            "__ZNK2v85Value19IsUint8ClampedArrayEv",
            "__ZN2v812IsolateGroup10GetDefaultEv",
            "__ZN2v88internal8compiler23CompilationDependencies27DependOnNoElementsProtectorEv",
            "__ZN5cppgc6subtle24NoGarbageCollectionScope5LeaveERNS_10HeapHandleE",
            "_js_is_bigint",
            "__ZN2v815ValueSerializer8Delegate15WriteHostObjectEPNS_7IsolateENS_5LocalINS_6ObjectEEE",
            "__ZN2v815SnapshotCreatorC1EPNS_7IsolateEPKlPKNS_11StartupDataEb",
            "__ZN2v86Object3SetENS_5LocalINS_7ContextEEENS1_INS_5ValueEEES5_NS_10MaybeLocalIS0_EE",
            "__ZN2v88internal15ThreadIsolation21RegisterJitAllocationEmmNS1_17JitAllocationTypeEb",
            "__ZN2v86String12MakeExternalEPNS_7IsolateEPNS0_29ExternalOneByteStringResourceE",
            "__ZNK2v84Data16IsObjectTemplateEv",
            "__ZN2v814ScriptCompiler20ConsumeCodeCacheTaskD2Ev",
            "_js_is_int8array",
            "__ZN2v89CodeEvent13GetScriptNameEv",
            "_latin1_convert_to_utf32",
            "_napi_convert_to_typedarray_type",
            "__ZN12v8_inspector8String16C2EPKc",
            "__ZNK2v87Private4NameEv",
            "__ZN12v8_inspector14V8StackTraceIdC1ENS_10StringViewE",
            "__ZN2v84Date9CheckCastEPNS_5ValueE",
            "_js_create_external",
            "__ZNK2v811ArrayBuffer13MaxByteLengthEv",
            "__ZN2v87Isolate29AllowJavascriptExecutionScopeC2EPS0_",
            "__ZN2v817SharedArrayBuffer9CheckCastEPNS_5ValueE",
            "__ZN2v818HeapCodeStatisticsC2Ev",
            "__ZN2v86Locker10InitializeEPNS_7IsolateE",
            "__ZN2v87Isolate27RemoveNearHeapLimitCallbackEPFmPvmmEm",
            "__ZN2v87Isolate27RemoveCallCompletedCallbackEPFvPS0_E",
            "__ZN2v815ValueSerializer8Delegate16FreeBufferMemoryEPv",
            "__ZN2v85Proxy6RevokeEv",
            "_utf32_convert_to_utf16le",
            "__ZNK2v814CpuProfileNode13GetDeoptInfosEv",
            "__ZN2v812HeapSnapshot6DeleteEv",
            "_uv_tcp_init",
            "_js_is_generator_function",
            "__ZNK2v814CpuProfileNode11GetScriptIdEv",
            "__ZNK2v86Script24GetCompileHintsCollectorEv",
            "_uv_free_cpu_info",
            "_js_get_array_elements",
            "_napi_define_properties",
            "__ZNK5cppgc8internal11GCInfoTable12MaxTableSizeEv",
            "_js_get_array_length",
            "_bare_resume",
            "__ZN2v88internal8compiler23CompilationDependencies29DependOnEmptyContextExtensionENS1_12ScopeInfoRefE",
            "__ZN2v86Module21CreateSyntheticModuleEPNS_7IsolateENS_5LocalINS_6StringEEERKNS_10MemorySpanIKS5_EEPFNS_10MaybeLocalINS_5ValueEEENS3_INS_7ContextEEENS3_IS0_EEE",
            "__ZNK5cppgc8internal11GCInfoTable17InitialTableLimitEv",
            "__ZN2v82V87DisposeEv",
            "_uv_cancel",
            "_utf8_string_reserve",
            "__ZN2v83Map6DeleteENS_5LocalINS_7ContextEEENS1_INS_5ValueEEE",
            "__ZN2v814ObjectTemplate18MarkAsUndetectableEv",
            "__ZN2v86Object3NewEPNS_7IsolateENS_5LocalINS_5ValueEEEPNS3_INS_4NameEEEPS5_m",
            "__ZN2v817ValueDeserializer10ReadDoubleEPd",
            "__ZN2v815SnapshotCreatorC1EPNS_7IsolateERKNS1_12CreateParamsE",
            "__ZN2v811Uint32Array3NewENS_5LocalINS_17SharedArrayBufferEEEmm",
            "__ZNK2v88External5ValueEv",
            "__ZN2v88internal32OptimizingCompileDispatcherQueue10PrioritizeENS0_6TaggedINS0_18SharedFunctionInfoEEE",
            "_uv_fs_write",
            "_uv_os_uname",
            "__ZN2v819UnboundModuleScript19GetSourceMappingURLEv",
            "__ZN2v86Object18GetCreationContextEPNS_7IsolateE",
            "__ZNK2v811ArrayBuffer11WasDetachedEv",
            "__ZN2v86Object21SetNativeDataPropertyENS_5LocalINS_7ContextEEENS1_INS_4NameEEEPFvS5_RKNS_20PropertyCallbackInfoINS_5ValueEEEEPFvS5_NS1_IS7_EERKNS6_IvEEESD_NS_17PropertyAttributeENS_14SideEffectTypeESK_",
            "__ZNK2v813HeapGraphEdge7GetTypeEv",
            "__ZNK2v85Value13IsArrayBufferEv",
            "__ZNK2v85Value13IsNativeErrorEv",
            "__ZN2v87CppHeap6CreateEPNS_8PlatformERKNS_19CppHeapCreateParamsE",
            "__ZNK2v84Data7IsValueEv",
            "__ZN2v89CodeEvent11GetCodeTypeEv",
            "_uv_guess_handle",
            "_js_unref_threadsafe_function",
            "__ZN2v822SandboxHardwareSupport30InitializeBeforeThreadCreationEv",
            "__ZN2v88internal8compiler23CompilationDependencies20DependOnElementsKindENS1_17AllocationSiteRefE",
            "_latin1_length_from_utf16le",
            "__ZN2v87metrics8Recorder12GetContextIdENS_5LocalINS_7ContextEEE",
            "__ZN2v83Map3GetENS_5LocalINS_7ContextEEENS1_INS_5ValueEEE",
            "__ZN5cppgc8internal20PersistentRegionBaseC1ERKNS0_23FatalOutOfMemoryHandlerE",
            "_napi_get_cb_info",
            "_js_add_teardown_callback",
            "__ZN2v86String11NewFromUtf8EPNS_7IsolateEPKcNS_13NewStringTypeEi",
            "__ZN2v87Isolate30NumberOfTrackedHeapObjectTypesEv",
            "__ZN2v87Isolate28SetWasmLoadSourceMapCallbackEPFNS_5LocalINS_6StringEEEPS0_PKcE",
            "_js_attach_context_to_inspector",
            "_uv_os_free_passwd",
            "__ZNK2v85Value13IsSetIteratorEv",
            "__ZN2v813WasmStreamingD2Ev",
            "__ZN2v87Isolate31IsolateInForegroundNotificationEv",
            "__ZNK2v85Value9ToIntegerENS_5LocalINS_7ContextEEE",
            "__ZN2v815SealHandleScopeC2EPNS_7IsolateE",
            "__ZN2v88Function9CheckCastEPNS_5ValueE",
            "__ZN2v814PrimitiveArray3SetEPNS_7IsolateEiNS_5LocalINS_9PrimitiveEEE",
            "_napi_async_init",
            "__ZNK2v86Symbol11DescriptionEPNS_7IsolateE",
            "_js_create_unsafe_arraybuffer",
            "_uv_try_write2",
            "_napi_create_buffer",
            "_uv_udp_open",
            "__ZN2v86String9ValueViewD2Ev",
            "__ZN2v813WasmStreaming6FinishEb",
            "__ZNK2v86String12WriteOneByteEPNS_7IsolateEPhiii",
            "__ZN2v815SnapshotCreator17SetDefaultContextENS_5LocalINS_7ContextEEENS_31SerializeInternalFieldsCallbackENS_28SerializeContextDataCallbackENS_27SerializeAPIWrapperCallbackE",
            "__ZN2v86Object19GetOwnPropertyNamesENS_5LocalINS_7ContextEEE",
            "__ZN2v815MicrotasksScopeC1EPNS_7IsolateEPNS_14MicrotaskQueueENS0_4TypeE",
            "__ZN2v87Isolate18SetOOMErrorHandlerEPFvPKcRKNS_10OOMDetailsEE",
            "__ZNK2v88TryCatch10StackTraceENS_5LocalINS_7ContextEEE",
            "_js_new_instance",
            "_js_create_external_string_utf8",
            "_js_create_bigint_int64",
            "_js_is_number",
            "__ZN2v88internal8compiler23CompilationDependencies28DependOnStablePrototypeChainENS1_6MapRefENS0_12WhereToStartENS1_11OptionalRefINS1_11JSObjectRefEEE",
            "__ZNK2v88internal10TickSample5printEv",
            "__ZNK2v85Value7IsArrayEv",
            "__ZN2v812api_internal23GetFunctionTemplateDataEPNS_7IsolateENS_5LocalINS_4DataEEE",
            "__ZN2v815ValueSerializer11WriteUint32Ej",
            "_js_is_detached_arraybuffer",
            "__ZN2v88internal15ThreadIsolation18SplitJitPageLockedEmm",
            "__ZN2v87Isolate21AddGCEpilogueCallbackEPFvPS0_NS_6GCTypeENS_15GCCallbackFlagsEPvES4_S2_",
            "__ZN2v87Isolate28GetEnteredOrMicrotaskContextEv",
            "_js_create_int64",
            "__ZN2v819HeapSpaceStatisticsC2Ev",
            "_utf8_string_insert_literal",
            "__ZN2v811ArrayBuffer3NewEPNS_7IsolateEmNS_30BackingStoreInitializationModeE",
            "__ZNK2v86Module17GetModuleRequestsEv",
            "_uv_stop",
            "__ZN2v812HeapProfiler23CopyNameForHeapSnapshotEPKc",
            "__ZN2v87CppHeap24CollectGarbageForTestingEN5cppgc18EmbedderStackStateE",
            "__ZNK2v810CpuProfile15GetSamplesCountEv",
            "__ZN2v810Int16Array3NewENS_5LocalINS_11ArrayBufferEEEmm",
            "_uv_udp_get_send_queue_count",
            "_uv_fs_symlink",
            "__ZN5cppgc6subtle24NoGarbageCollectionScope5EnterERNS_10HeapHandleE",
            "__ZN2v817ValueDeserializer19TransferArrayBufferEjNS_5LocalINS_11ArrayBufferEEE",
            "__ZN2v88internal8compiler23CompilationDependencies17DependOnStableMapENS1_6MapRefE",
            "_bare_addon_get_static",
            "__ZN2v818PropertyDescriptorC2Ev",
            "_bare_runtime_run",
            "_js_is_weak_ref",
            "_uv_cond_wait",
            "__ZN2v88TryCatch5ResetEv",
            "_uv_fs_get_system_error",
            "_napi_get_value_double",
            "_js_create_sharedarraybuffer_with_backing_store",
            "_js_is_boolean",
            "__ZN2v83Map3NewEPNS_7IsolateE",
            "_uv_thread_setname",
            "__ZN2v86Symbol14GetToPrimitiveEPNS_7IsolateE",
            "__ZNK2v87Message8IsOpaqueEv",
            "__ZNK2v85Value5IsSetEv",
            "__ZN12v8_inspector8protocol6Schema3API6Domain10fromBinaryEPKhm",
            "__ZN5cppgc6subtle30DisallowGarbageCollectionScope5LeaveERNS_10HeapHandleE",
            "__ZNK2v87Message16GetStartPositionEv",
            "_utf8_convert_to_utf32",
            "__ZN2v815ArrayBufferView10ByteLengthEv",
            "_uv_tcp_getpeername",
            "__ZN2v812IsolateGroupC1EOS0_",
            "__ZNK2v85Value9IsPromiseEv",
            "__ZN2v86Symbol6ForApiEPNS_7IsolateENS_5LocalINS_6StringEEE",
            "_uv_chdir",
            "__ZNK2v810CpuProfile22GetSampleEmbedderStateEi",
            "_js_close_handle_scope",
            "__ZN2v88internal9Internals20CheckInitializedImplEPNS_7IsolateE",
            "__ZN2v82V820SetFatalErrorHandlerEPFvPKciS2_E",
            "_js_add_type_tag",
            "_js_coerce_to_string",
            "__ZN2v813WasmStreaming5AbortENS_10MaybeLocalINS_5ValueEEE",
            "_uv_tcp_keepalive",
            "_utf8_string_view_concat_character",
            "_uv_key_delete",
            "_uv_uptime",
            "_log_vwarn",
            "__ZN2v811HandleScope15NumberOfHandlesEPNS_7IsolateE",
            "_uv_if_indextoiid",
            "__ZNK12v8_inspector8protocol6Binary8toBase64Ev",
            "__ZN12v8_inspector14V8StackTraceId8ToStringEv",
            "__ZN2v814ScriptCompiler10CachedDataC1EPKhiNS1_12BufferPolicyE",
            "_js_release_string_view",
            "__ZN2v87Isolate21SetUseCounterCallbackEPFvPS0_NS0_17UseCounterFeatureEE",
            "_log_verror",
            "__ZN2v88Unlocker10InitializeEPNS_7IsolateE",
            "_napi_get_instance_data",
            "_uv_utf16_length_as_wtf8",
            "__ZN2v814ScriptCompiler14StartStreamingEPNS_7IsolateEPNS0_14StreamedSourceENS_10ScriptTypeENS0_14CompileOptionsEPFbiPvES7_",
            "__ZN2v86Script15GetResourceNameEv"
          ],
          "weak": [
            "__ZN13js_platform_s8on_checkEP10uv_check_s",
            "__ZN8js_env_s8on_checkEP10uv_check_s",
            "__ZN8js_ref_s11on_finalizeERKN2v816WeakCallbackInfoIS_EE",
            "__ZNSt4__Cr10__function8__policy15__large_destroyINS0_20__default_alloc_funcIZN8js_env_s20call_into_javascriptIbEET_RKNS_8functionIFS6_vEEEbEUlvE_FbvEEEEEvPv",
            "__ZNSt4__Cr10__function8__policy15__large_destroyINS0_20__default_alloc_funcIZN8js_env_s20call_into_javascriptIN2v810MaybeLocalINS6_5ValueEEEEET_RKNS_8functionIFSA_vEEEbEUlvE_FS9_vEEEEEvPv",
            "__ZNSt4__Cr10__function8__policy13__large_cloneINS0_20__default_alloc_funcIZN8js_env_s20call_into_javascriptIN2v810MaybeLocalINS6_5ArrayEEEEET_RKNS_8functionIFSA_vEEEbEUlvE_FS9_vEEEEEPvPKv",
            "__Znwm",
            "__ZN8js_env_s17on_promise_rejectEN2v820PromiseRejectMessageE",
            "__ZN24js_threadsafe_function_s7on_callEP8js_env_sP10js_value_sPvS4_",
            "__ZN13js_delegate_s9on_deleteEjRKN2v820PropertyCallbackInfoINS0_7BooleanEEE",
            "__ZN11js_module_s17on_dynamic_importEN2v85LocalINS0_7ContextEEENS1_INS0_4DataEEENS1_INS0_5ValueEEENS1_INS0_6StringEEENS1_INS0_10FixedArrayEEE",
            "__Znam",
            "__ZN14js_finalizer_s23on_second_pass_finalizeERKN2v816WeakCallbackInfoIS_EE",
            "__ZnamSt11align_val_t",
            "__ZNSt4__Cr10__function8__policy15__large_destroyINS0_20__default_alloc_funcIZN8js_env_s20call_into_javascriptIN2v810MaybeLocalINS6_6ObjectEEEEET_RKNS_8functionIFSA_vEEEbEUlvE_FS9_vEEEEEvPv",
            "__ZN11js_worker_s9on_threadEv",
            "__ZNSt4__Cr10__function8__policy13__large_cloneINS0_20__default_alloc_funcIZN8js_env_s20call_into_javascriptIN2v810MaybeLocalINS6_6ObjectEEEEET_RKNS_8functionIFSA_vEEEbEUlvE_FS9_vEEEEEPvPKv",
            "__ZN8js_env_s21on_uncaught_exceptionEN2v85LocalINS0_7MessageEEENS1_INS0_5ValueEEE",
            "__ZN14js_finalizer_s11on_finalizeERKN2v816WeakCallbackInfoIS_EE",
            "__ZN8js_env_s11on_teardownEP10uv_async_s",
            "__ZN11js_module_s14on_import_metaEN2v85LocalINS0_7ContextEEENS1_INS0_6ModuleEEENS1_INS0_6ObjectEEE",
            "__ZN13js_callback_s7on_callERKN2v820FunctionCallbackInfoINS0_5ValueEEE",
            "__ZN8js_env_s15on_handle_closeEP11uv_handle_s",
            "__ZN16js_task_runner_s8on_timerEP10uv_timer_s",
            "__ZnwmSt11align_val_t",
            "__ZNSt4__Cr10__function16__policy_invokerIFN2v810MaybeLocalINS2_6ObjectEEEvEE11__call_implINS0_20__default_alloc_funcIZN8js_env_s20call_into_javascriptIS5_EET_RKNS_8functionIFSC_vEEEbEUlvE_S6_EEEES5_PKNS0_16__policy_storageE",
            "__ZN13js_delegate_s6on_getIN2v84NameEEENS1_11InterceptedENS1_5LocalIT_EERKNS1_20PropertyCallbackInfoINS1_5ValueEEE",
            "__ZN13js_platform_s15on_handle_closeEP11uv_handle_s",
            "__ZNSt4__Cr10__function16__policy_invokerIFN2v85MaybeIbEEvEE11__call_implINS0_20__default_alloc_funcIZN8js_env_s20call_into_javascriptIS4_EET_RKNS_8functionIFSB_vEEEbEUlvE_S5_EEEES4_PKNS0_16__policy_storageE",
            "__ZN13js_delegate_s6on_setEjN2v85LocalINS0_5ValueEEERKNS0_20PropertyCallbackInfoIvEE",
            "__ZN13js_delegate_s12on_enumerateERKN2v820PropertyCallbackInfoINS0_5ArrayEEE",
            "__ZNSt4__Cr10__function16__policy_invokerIFvvEE11__call_implINS0_20__default_alloc_funcIZN16js_task_runner_s9push_taskEO21js_idle_task_handle_sEUlvE_S2_EEEEvPKNS0_16__policy_storageE",
            "__ZN16js_task_runner_s8on_asyncEP10uv_async_s",
            "__ZN11js_module_s10on_resolveEN2v85LocalINS0_7ContextEEENS1_INS0_6StringEEENS1_INS0_10FixedArrayEEENS1_INS0_6ModuleEEE",
            "__ZNSt4__Cr10__function8__policy13__large_cloneINS0_20__default_alloc_funcIZN8js_env_s20call_into_javascriptIbEET_RKNS_8functionIFS6_vEEEbEUlvE_FbvEEEEEPvPKv",
            "__ZNSt4__Cr10__function16__policy_invokerIFvvEE12__call_emptyEPKNS0_16__policy_storageE",
            "__ZN13js_delegate_s6on_setIN2v84NameEEENS1_11InterceptedENS1_5LocalIT_EENS4_INS1_5ValueEEERKNS1_20PropertyCallbackInfoIvEE",
            "__ZNSt4__Cr10__function16__policy_invokerIFvvEE11__call_implINS0_20__default_alloc_funcIZN16js_task_runner_s9push_taskEO16js_task_handle_sEUlvE_S2_EEEEvPKNS0_16__policy_storageE",
            "__ZN13js_delegate_s9on_deleteIN2v84NameEEENS1_11InterceptedENS1_5LocalIT_EERKNS1_20PropertyCallbackInfoINS1_7BooleanEEE",
            "__ZNSt4__Cr10__function16__policy_invokerIFvvEE11__call_implINS0_20__default_alloc_funcIZN16js_task_runner_s9push_taskEO24js_delayed_task_handle_sEUlvE_S2_EEEEvPKNS0_16__policy_storageE",
            "__ZNSt4__Cr10__function8__policy13__large_cloneINS0_20__default_alloc_funcIZN8js_env_s20call_into_javascriptIN2v810MaybeLocalINS6_5ValueEEEEET_RKNS_8functionIFSA_vEEEbEUlvE_FS9_vEEEEEPvPKv",
            "__ZN8js_env_s10on_prepareEP12uv_prepare_s",
            "__ZNSt4__Cr10__function16__policy_invokerIFN2v810MaybeLocalINS2_5ValueEEEvEE11__call_implINS0_20__default_alloc_funcIZN8js_env_s20call_into_javascriptIS5_EET_RKNS_8functionIFSC_vEEEbEUlvE_S6_EEEES5_PKNS0_16__policy_storageE",
            "__ZNSt4__Cr10__function16__policy_invokerIFbvEE11__call_implINS0_20__default_alloc_funcIZN8js_env_s20call_into_javascriptIbEET_RKNS_8functionIFS8_vEEEbEUlvE_S2_EEEEbPKNS0_16__policy_storageE",
            "__ZNSt4__Cr10__function16__policy_invokerIFN2v810MaybeLocalINS2_5ArrayEEEvEE11__call_implINS0_20__default_alloc_funcIZN8js_env_s20call_into_javascriptIS5_EET_RKNS_8functionIFSC_vEEEbEUlvE_S6_EEEES5_PKNS0_16__policy_storageE",
            "__ZN13js_delegate_s6on_getEjRKN2v820PropertyCallbackInfoINS0_5ValueEEE",
            "__ZN24js_threadsafe_function_s8on_asyncEP10uv_async_s",
            "__ZNSt4__Cr14__thread_proxyINS_5tupleIJNS_10unique_ptrINS_15__thread_structENS_14default_deleteIS3_EEEEM11js_worker_sFvvEPS7_EEEEEPvSC_",
            "__ZNSt4__Cr10__function8__policy15__large_destroyINS0_20__default_alloc_funcIZN8js_env_s20call_into_javascriptIN2v85MaybeIbEEEET_RKNS_8functionIFS9_vEEEbEUlvE_FS8_vEEEEEvPv",
            "__ZN24js_threadsafe_function_s8on_closeEP11uv_handle_s",
            "__ZN16js_task_runner_s15on_handle_closeEP11uv_handle_s",
            "__ZN13js_callback_s11on_finalizeERKN2v816WeakCallbackInfoIS_EE",
            "__ZNSt4__Cr10__function8__policy13__large_cloneINS0_20__default_alloc_funcIZN8js_env_s20call_into_javascriptIN2v85MaybeIbEEEET_RKNS_8functionIFS9_vEEEbEUlvE_FS8_vEEEEEPvPKv",
            "__ZNSt4__Cr10__function8__policy15__large_destroyINS0_20__default_alloc_funcIZN8js_env_s20call_into_javascriptIN2v810MaybeLocalINS6_5ArrayEEEEET_RKNS_8functionIFSA_vEEEbEUlvE_FS9_vEEEEEvPv",
            "__ZN11js_module_s11on_evaluateEN2v85LocalINS0_7ContextEEENS1_INS0_6ModuleEEE",
            "__ZN13js_platform_s10on_prepareEP12uv_prepare_s"
          ]
        }
      }
    ],
    "flags": [
      {
        "attributes": [
          "not_app_extension_safe"
        ]
      }
    ],
    "install_names": [
      {
        "name": "@rpath/libbare.dylib"
      }
    ],
    "target_info": [
      {
        "min_deployment": "11",
        "target": "x86_64-macos"
      }
    ]
  },
  "tapi_tbd_version": 5
}
